   1              		.syntax unified
   2              		.cpu cortex-m4
   3              		.fpu softvfp
   4              		.eabi_attribute 20, 1
   5              		.eabi_attribute 21, 1
   6              		.eabi_attribute 23, 3
   7              		.eabi_attribute 24, 1
   8              		.eabi_attribute 25, 1
   9              		.eabi_attribute 26, 1
  10              		.eabi_attribute 30, 6
  11              		.eabi_attribute 34, 1
  12              		.eabi_attribute 18, 4
  13              		.thumb
  14              		.file	"init.c"
  15              		.text
  16              	.Ltext0:
  17              		.cfi_sections	.debug_frame
  18              		.comm	I2C_Variable,4,4
  19              		.comm	uart_data,1,1
  20              		.comm	adc_data,60,4
  21              		.comm	Kp,4,4
  22              		.comm	Kd,4,4
  23              		.comm	Ki,4,4
  24              		.comm	zKp,4,4
  25              		.comm	zKd,4,4
  26              		.comm	basepower,4,4
  27              		.comm	setpoint_x,4,4
  28              		.comm	setpoint_y,4,4
  29              		.comm	setpoint_z,4,4
  30              		.comm	setpoint_alt,4,4
  31              		.comm	batt1_vol,4,4
  32              		.comm	batt2_vol,4,4
  33              		.comm	batt3_vol,4,4
  34              		.comm	BATT_VOLT,4,4
  35              		.comm	FatFs,560,4
  36              		.comm	fil,548,4
  37              		.comm	GYRO_XOUT_OFFSET,2,2
  38              		.comm	GYRO_YOUT_OFFSET,2,2
  39              		.comm	GYRO_ZOUT_OFFSET,2,2
  40              		.comm	ACCEL_XOUT_OFFSET,2,2
  41              		.comm	ACCEL_YOUT_OFFSET,2,2
  42              		.comm	ACCEL_ZOUT_OFFSET,2,2
  43              		.comm	GYRO_XANGLE,4,4
  44              		.comm	GYRO_YANGLE,4,4
  45              		.comm	GYRO_ZANGLE,4,4
  46              		.comm	GYRO_XOUT,2,2
  47              		.comm	GYRO_YOUT,2,2
  48              		.comm	GYRO_ZOUT,2,2
  49              		.comm	ACCEL_XOUT,2,2
  50              		.comm	ACCEL_YOUT,2,2
  51              		.comm	ACCEL_ZOUT,2,2
  52              		.comm	ACCEL_Gx,4,4
  53              		.comm	ACCEL_Gy,4,4
  54              		.comm	ACCEL_Gz,4,4
  55              		.comm	ACCEL,8,8
  56              		.comm	GYRO_XRATE,4,4
  57              		.comm	GYRO_YRATE,4,4
  58              		.comm	GYRO_ZRATE,4,4
  59              		.comm	ACCEL_XANGLE,4,4
  60              		.comm	ACCEL_YANGLE,4,4
  61              		.comm	gyro_xsensitivity,4,4
  62              		.comm	gyro_ysensitivity,4,4
  63              		.comm	gyro_zsensitivity,4,4
  64              		.comm	a,4,4
  65              		.comm	dt,4,4
  66              		.comm	COMPLEMENTARY_XANGLE,4,4
  67              		.comm	COMPLEMENTARY_YANGLE,4,4
  68              		.comm	filter_xterm,12,4
  69              		.comm	filter_yterm,12,4
  70              		.comm	XANGLE_OFFSET,4,4
  71              		.comm	YANGLE_OFFSET,4,4
  72              		.comm	TEMP,4,4
  73              		.comm	timeConstant,4,4
  74              		.comm	MPU_6050_buffer,14,4
  75              		.comm	AC1,2,2
  76              		.comm	AC2,2,2
  77              		.comm	AC3,2,2
  78              		.comm	B1,2,2
  79              		.comm	B2,2,2
  80              		.comm	MB,2,2
  81              		.comm	MC,2,2
  82              		.comm	MD,2,2
  83              		.comm	AC4,2,2
  84              		.comm	AC5,2,2
  85              		.comm	AC6,2,2
  86              		.comm	T,4,4
  87              		.comm	absolute_altittude,4,4
  88              		.comm	start_altittude,4,4
  89              		.comm	relative_altittude,4,4
  90              		.comm	P,4,4
  91              		.align	2
  92              		.global	initInterrupts
  93              		.thumb
  94              		.thumb_func
  96              	initInterrupts:
  97              	.LFB0:
  98              		.file 1 "../Sources/init.c"
   1:../Sources/init.c **** #include "init.h"
   2:../Sources/init.c **** 
   3:../Sources/init.c **** void initInterrupts()		//MAX priority is 3!
   4:../Sources/init.c **** {
  99              		.loc 1 4 0
 100              		.cfi_startproc
 101              		@ args = 0, pretend = 0, frame = 0
 102              		@ frame_needed = 1, uses_anonymous_args = 0
 103 0000 80B5     		push	{r7, lr}
 104              	.LCFI0:
 105              		.cfi_def_cfa_offset 8
 106              		.cfi_offset 7, -8
 107              		.cfi_offset 14, -4
 108 0002 00AF     		add	r7, sp, #0
 109              	.LCFI1:
 110              		.cfi_def_cfa_register 7
   5:../Sources/init.c **** 	enable_irq(INT_PIT0-16);		//PID Interrupt, Initialize the NVIC to enable the specified IRQ
 111              		.loc 1 5 0
 112 0004 4FF04400 		mov	r0, #68
 113 0008 FFF7FEFF 		bl	enable_irq
   6:../Sources/init.c **** 	set_irq_priority (INT_PIT0-16, 1);	//Set priority 2
 114              		.loc 1 6 0
 115 000c 4FF04400 		mov	r0, #68
 116 0010 4FF00101 		mov	r1, #1
 117 0014 FFF7FEFF 		bl	set_irq_priority
   7:../Sources/init.c **** 	//enable_irq(INT_UART1_RX_TX-16);			//Interrupt from data on bleutooth module	
   8:../Sources/init.c **** 	//set_irq_priority (INT_UART1_RX_TX - 16, 0);
   9:../Sources/init.c **** /*	enable_irq(INT_PORTA - 16);					//Interrupt from bluetooth module when lost signal
  10:../Sources/init.c **** 	set_irq_priority (INT_PORTA - 16, 3);*/
  11:../Sources/init.c **** //	enable_irq(INT_ADC0 - 16);		// Initialize the NVIC to enable the specified IRQ
  12:../Sources/init.c **** //	set_irq_priority (INT_ADC0 - 16, 4); //Set priority 4 */
  13:../Sources/init.c **** 	//enable_irq(INT_TPM2 - 16);		//SDcard log interrupt Initialize the NVIC to enable the specified I
  14:../Sources/init.c **** 	//set_irq_priority (INT_TPM2 - 16, 3); //Set priority 3
  15:../Sources/init.c **** }
 118              		.loc 1 15 0
 119 0018 80BD     		pop	{r7, pc}
 120              		.cfi_endproc
 121              	.LFE0:
 123 001a 00BF     		.align	2
 124              		.global	Init
 125              		.thumb
 126              		.thumb_func
 128              	Init:
 129              	.LFB1:
  16:../Sources/init.c **** 
  17:../Sources/init.c **** void Init()
  18:../Sources/init.c **** {
 130              		.loc 1 18 0
 131              		.cfi_startproc
 132              		@ args = 0, pretend = 0, frame = 0
 133              		@ frame_needed = 1, uses_anonymous_args = 0
 134 001c 80B5     		push	{r7, lr}
 135              	.LCFI2:
 136              		.cfi_def_cfa_offset 8
 137              		.cfi_offset 7, -8
 138              		.cfi_offset 14, -4
 139 001e 00AF     		add	r7, sp, #0
 140              	.LCFI3:
 141              		.cfi_def_cfa_register 7
  19:../Sources/init.c **** 	InitClock();
 142              		.loc 1 19 0
 143 0020 FFF7FEFF 		bl	InitClock
  20:../Sources/init.c **** 	InitSysTick();
 144              		.loc 1 20 0
 145 0024 FFF7FEFF 		bl	InitSysTick
  21:../Sources/init.c **** 	InitADC();
 146              		.loc 1 21 0
 147 0028 FFF7FEFF 		bl	InitADC
  22:../Sources/init.c **** 	InitADCpins();
 148              		.loc 1 22 0
 149 002c FFF7FEFF 		bl	InitADCpins
  23:../Sources/init.c **** //	DMA_ADC_init(DMA_BASE_PTR,ADC_SOURCE,CHANNEL_2,(uint32_t)(&ADC0_RA),(uint32_t)(&adc_data[0]),15,
  24:../Sources/init.c **** 	initLEDs();			//A panelon levo LEDek inicializalasa	vagy ez
 150              		.loc 1 24 0
 151 0030 FFF7FEFF 		bl	initLEDs
  25:../Sources/init.c **** 	init_Motor_PWM();
 152              		.loc 1 25 0
 153 0034 FFF7FEFF 		bl	init_Motor_PWM
  26:../Sources/init.c **** 	init_Ticker();		//FTM1 Timer idõmérésre használlom, csak bekapcsolom
 154              		.loc 1 26 0
 155 0038 FFF7FEFF 		bl	init_Ticker
  27:../Sources/init.c **** 	init_SPI0();		//SPI0 inicialzálása beálitasa
 156              		.loc 1 27 0
 157 003c FFF7FEFF 		bl	init_SPI0
  28:../Sources/init.c **** //	init_SD();			//SD kártya inicializalasa
  29:../Sources/init.c **** 	Init_I2C();		//
 158              		.loc 1 29 0
 159 0040 FFF7FEFF 		bl	Init_I2C
  30:../Sources/init.c **** 	//RTC();				//RTC_TSR regiszter másodperc számláló bekapcsolása
  31:../Sources/init.c **** 	initTimer0();		//Timer for PID interrupt
 160              		.loc 1 31 0
 161 0044 FFF7FEFF 		bl	initTimer0
  32:../Sources/init.c **** 	initTimer1();		//Timer for SDcard log interrupt 
 162              		.loc 1 32 0
 163 0048 FFF7FEFF 		bl	initTimer1
  33:../Sources/init.c **** //	init_PWM_LED();		//A panelon levo LEDek PWM meghajtasa 	vagy ez
  34:../Sources/init.c **** //	InitUARTs();
  35:../Sources/init.c **** //	DMA_uart_init(DMA_BASE_PTR,UART0_SOURCE,CHANNEL_1,(uint32_t)(&UART0_D),(uint32_t)(&uart_data),1,
  36:../Sources/init.c **** //	initBluetooth(); //Interrupt on lost signal
  37:../Sources/init.c **** 	initInterrupts();
 164              		.loc 1 37 0
 165 004c FFF7FEFF 		bl	initInterrupts
  38:../Sources/init.c **** //	init_MPU6050();
  39:../Sources/init.c **** //	init_BMP180();
  40:../Sources/init.c **** 
  41:../Sources/init.c **** }
 166              		.loc 1 41 0
 167 0050 80BD     		pop	{r7, pc}
 168              		.cfi_endproc
 169              	.LFE1:
 171              	.Letext0:
 172              		.file 2 "c:\\freescale\\cw mcu v10.6\\cross_tools\\arm-none-eabi-gcc-4_7_3\\bin\\../lib/gcc/arm-no
 173              		.file 3 "E:/saj\341t/quadcopter/quadcopter v2.0/Sources/ff10b/src/integer.h"
 174              		.file 4 "E:/saj\341t/quadcopter/quadcopter v2.0/Sources/ff10b/src/ff.h"
 175              		.file 5 "E:/saj\341t/quadcopter/quadcopter v2.0/Project_Headers/processor_specific_functions/K40/i
 176              		.file 6 "E:/saj\341t/quadcopter/quadcopter v2.0/Project_Headers/processor_specific_functions/K40/d
 177              		.file 7 "E:/saj\341t/quadcopter/quadcopter v2.0/Project_Headers/interrupts.h"
 178              		.file 8 "E:/saj\341t/quadcopter/quadcopter v2.0/Project_Headers/SDcard.h"
 179              		.file 9 "E:/saj\341t/quadcopter/quadcopter v2.0/Project_Headers/MPU6050.h"
 180              		.file 10 "E:/saj\341t/quadcopter/quadcopter v2.0/Project_Headers/BMP180.h"
 181              		.file 11 "E:/saj\341t/quadcopter/quadcopter v2.0/Project_Headers/processor_specific_functions\\K40