   1              		.syntax unified
   2              		.cpu cortex-m4
   3              		.fpu softvfp
   4              		.eabi_attribute 20, 1
   5              		.eabi_attribute 21, 1
   6              		.eabi_attribute 23, 3
   7              		.eabi_attribute 24, 1
   8              		.eabi_attribute 25, 1
   9              		.eabi_attribute 26, 1
  10              		.eabi_attribute 30, 6
  11              		.eabi_attribute 34, 1
  12              		.eabi_attribute 18, 4
  13              		.thumb
  14              		.file	"Interrupts.c"
  15              		.text
  16              	.Ltext0:
  17              		.cfi_sections	.debug_frame
  18              		.comm	I2C_Variable,4,4
  19              		.comm	uart_data,1,1
  20              		.comm	adc_data,60,4
  21              		.global	Kp
  22              		.data
  23              		.align	2
  26              	Kp:
  27 0000 0000D040 		.word	1087373312
  28              		.global	Kd
  29              		.align	2
  32              	Kd:
  33 0004 00000040 		.word	1073741824
  34              		.global	Ki
  35              		.bss
  36              		.align	2
  39              	Ki:
  40 0000 00000000 		.space	4
  41              		.global	zKp
  42              		.data
  43              		.align	2
  46              	zKp:
  47 0008 00002040 		.word	1075838976
  48              		.global	zKd
  49              		.align	2
  52              	zKd:
  53 000c 3333333F 		.word	1060320051
  54              		.global	basepower
  55              		.align	2
  58              	basepower:
  59 0010 CEFFFFFF 		.word	-50
  60              		.global	setpoint_x
  61              		.bss
  62              		.align	2
  65              	setpoint_x:
  66 0004 00000000 		.space	4
  67              		.global	setpoint_y
  68              		.align	2
  71              	setpoint_y:
  72 0008 00000000 		.space	4
  73              		.global	setpoint_z
  74              		.align	2
  77              	setpoint_z:
  78 000c 00000000 		.space	4
  79              		.global	setpoint_alt
  80              		.align	2
  83              	setpoint_alt:
  84 0010 00000000 		.space	4
  85              		.comm	batt1_vol,4,4
  86              		.comm	batt2_vol,4,4
  87              		.comm	batt3_vol,4,4
  88              		.comm	BATT_VOLT,4,4
  89              		.comm	FatFs,560,4
  90              		.comm	fil,548,4
  91              		.comm	GYRO_XOUT_OFFSET,2,2
  92              		.comm	GYRO_YOUT_OFFSET,2,2
  93              		.comm	GYRO_ZOUT_OFFSET,2,2
  94              		.comm	ACCEL_XOUT_OFFSET,2,2
  95              		.comm	ACCEL_YOUT_OFFSET,2,2
  96              		.comm	ACCEL_ZOUT_OFFSET,2,2
  97              		.comm	GYRO_XANGLE,4,4
  98              		.comm	GYRO_YANGLE,4,4
  99              		.comm	GYRO_ZANGLE,4,4
 100              		.comm	GYRO_XOUT,2,2
 101              		.comm	GYRO_YOUT,2,2
 102              		.comm	GYRO_ZOUT,2,2
 103              		.comm	ACCEL_XOUT,2,2
 104              		.comm	ACCEL_YOUT,2,2
 105              		.comm	ACCEL_ZOUT,2,2
 106              		.comm	ACCEL_Gx,4,4
 107              		.comm	ACCEL_Gy,4,4
 108              		.comm	ACCEL_Gz,4,4
 109              		.comm	ACCEL,8,8
 110              		.comm	GYRO_XRATE,4,4
 111              		.comm	GYRO_YRATE,4,4
 112              		.comm	GYRO_ZRATE,4,4
 113              		.comm	ACCEL_XANGLE,4,4
 114              		.comm	ACCEL_YANGLE,4,4
 115              		.comm	gyro_xsensitivity,4,4
 116              		.comm	gyro_ysensitivity,4,4
 117              		.comm	gyro_zsensitivity,4,4
 118              		.comm	a,4,4
 119              		.comm	dt,4,4
 120              		.comm	COMPLEMENTARY_XANGLE,4,4
 121              		.comm	COMPLEMENTARY_YANGLE,4,4
 122              		.comm	filter_xterm,12,4
 123              		.comm	filter_yterm,12,4
 124              		.comm	XANGLE_OFFSET,4,4
 125              		.comm	YANGLE_OFFSET,4,4
 126              		.comm	TEMP,4,4
 127              		.comm	timeConstant,4,4
 128              		.comm	MPU_6050_buffer,14,4
 129              		.comm	AC1,2,2
 130              		.comm	AC2,2,2
 131              		.comm	AC3,2,2
 132              		.comm	B1,2,2
 133              		.comm	B2,2,2
 134              		.comm	MB,2,2
 135              		.comm	MC,2,2
 136              		.comm	MD,2,2
 137              		.comm	AC4,2,2
 138              		.comm	AC5,2,2
 139              		.comm	AC6,2,2
 140              		.comm	T,4,4
 141              		.comm	absolute_altittude,4,4
 142              		.comm	start_altittude,4,4
 143              		.comm	relative_altittude,4,4
 144              		.comm	P,4,4
 145              		.global	Alt_Kp
 146              		.align	2
 149              	Alt_Kp:
 150 0014 00000000 		.space	4
 151              		.global	Alt_Kd
 152              		.align	2
 155              	Alt_Kd:
 156 0018 00000000 		.space	4
 157              		.global	Alt_Ki
 158              		.align	2
 161              	Alt_Ki:
 162 001c 00000000 		.space	4
 163              		.comm	Kp_mem,4,4
 164              		.comm	Kd_mem,4,4
 165              		.global	No
 166              		.align	2
 169              	No:
 170 0020 00000000 		.space	4
 171              		.comm	flag_kyb,4,4
 172              		.comm	A_f,4,4
 173              		.comm	B_f,4,4
 174              		.comm	C_f,4,4
 175              		.comm	D_f,4,4
 176              		.comm	A,4,4
 177              		.comm	B,4,4
 178              		.comm	C,4,4
 179              		.comm	D,4,4
 180              		.global	errorSum_x
 181              		.align	2
 184              	errorSum_x:
 185 0024 00000000 		.space	4
 186              		.global	errorSum_y
 187              		.align	2
 190              	errorSum_y:
 191 0028 00000000 		.space	4
 192              		.global	errorSum_alt
 193              		.align	2
 196              	errorSum_alt:
 197 002c 00000000 		.space	4
 198              		.comm	errorPrev_alt,4,4
 199              		.comm	flag,2,2
 200              		.comm	LOW_BATT_FLAG,2,2
 201              		.global	flag_landing
 204              	flag_landing:
 205 0030 00       		.space	1
 206              		.global	output_ALT
 207 0031 000000   		.align	2
 210              	output_ALT:
 211 0034 00000000 		.space	4
 212              		.comm	output_x,4,4
 213              		.comm	output_y,4,4
 214              		.comm	output_z,4,4
 215              		.comm	adc,60,4
 216              		.comm	adc_temp,60,4
 217              		.global	adc_flag
 220              	adc_flag:
 221 0038 00       		.space	1
 222              		.global	__aeabi_i2f
 223              		.global	__aeabi_fadd
 224              		.global	__aeabi_fmul
 225              		.text
 226              		.align	2
 227              		.global	PID_pitchroll
 228              		.thumb
 229              		.thumb_func
 231              	PID_pitchroll:
 232              	.LFB0:
 233              		.file 1 "../Sources/Interrupts.c"
   1:../Sources/Interrupts.c **** /*
   2:../Sources/Interrupts.c ****  * Interrupts.c
   3:../Sources/Interrupts.c ****  *
   4:../Sources/Interrupts.c ****  *  Created on: Dec 10, 2014
   5:../Sources/Interrupts.c ****  *      Author: Norbi
   6:../Sources/Interrupts.c ****  */
   7:../Sources/Interrupts.c **** 
   8:../Sources/Interrupts.c **** #include "init.h"
   9:../Sources/Interrupts.c **** #include "stdlib.h"
  10:../Sources/Interrupts.c **** #define integral_max 0.5
  11:../Sources/Interrupts.c **** #define integral_alt_max 10 
  12:../Sources/Interrupts.c **** 
  13:../Sources/Interrupts.c **** float Kp=6.5,Kd=2.0/*2*/,Ki=0/*100*/,zKp=2.5,zKd=0.7,Alt_Kp=0/*25*/,Alt_Kd=0/*20*/,Alt_Ki=0/*0.5*/,
  14:../Sources/Interrupts.c **** int basepower=-50,setpoint_x=0,setpoint_y=0,setpoint_z=0,No=0,flag_kyb;
  15:../Sources/Interrupts.c **** float setpoint_alt=0;
  16:../Sources/Interrupts.c **** int A_f,B_f,C_f,D_f,A,B,C,D;
  17:../Sources/Interrupts.c **** float errorSum_x=0,errorSum_y=0,errorSum_alt=0,errorPrev_alt;
  18:../Sources/Interrupts.c **** short flag,LOW_BATT_FLAG;
  19:../Sources/Interrupts.c **** char flag_landing=0;
  20:../Sources/Interrupts.c **** float output_ALT=0;
  21:../Sources/Interrupts.c **** float output_x,output_y,output_z;// csak debugoolas vegett deklaralva fent
  22:../Sources/Interrupts.c **** long adc[15],adc_temp[15];
  23:../Sources/Interrupts.c **** float batt1_vol,batt2_vol,batt3_vol,BATT_VOLT;
  24:../Sources/Interrupts.c **** char adc_flag=0;
  25:../Sources/Interrupts.c **** 
  26:../Sources/Interrupts.c **** float PID_pitchroll(int setpoint, float measured_value,float *errorSum, float dErr)
  27:../Sources/Interrupts.c **** {
 234              		.loc 1 27 0
 235              		.cfi_startproc
 236              		@ args = 0, pretend = 0, frame = 24
 237              		@ frame_needed = 1, uses_anonymous_args = 0
 238 0000 90B5     		push	{r4, r7, lr}
 239              	.LCFI0:
 240              		.cfi_def_cfa_offset 12
 241              		.cfi_offset 4, -12
 242              		.cfi_offset 7, -8
 243              		.cfi_offset 14, -4
 244 0002 87B0     		sub	sp, sp, #28
 245              	.LCFI1:
 246              		.cfi_def_cfa_offset 40
 247 0004 00AF     		add	r7, sp, #0
 248              	.LCFI2:
 249              		.cfi_def_cfa_register 7
 250 0006 F860     		str	r0, [r7, #12]
 251 0008 B960     		str	r1, [r7, #8]	@ float
 252 000a 7A60     		str	r2, [r7, #4]
 253 000c 3B60     		str	r3, [r7, #0]	@ float
  28:../Sources/Interrupts.c **** 	float error;
  29:../Sources/Interrupts.c **** 	error=setpoint+measured_value;
 254              		.loc 1 29 0
 255 000e F868     		ldr	r0, [r7, #12]
 256 0010 FFF7FEFF 		bl	__aeabi_i2f
 257 0014 0346     		mov	r3, r0
 258 0016 1846     		mov	r0, r3
 259 0018 B968     		ldr	r1, [r7, #8]	@ float
 260 001a FFF7FEFF 		bl	__aeabi_fadd
 261 001e 0346     		mov	r3, r0
 262 0020 7B61     		str	r3, [r7, #20]	@ float
  30:../Sources/Interrupts.c **** 	*errorSum=*errorSum+error*dt;
 263              		.loc 1 30 0
 264 0022 7B68     		ldr	r3, [r7, #4]
 265 0024 1C68     		ldr	r4, [r3, #0]	@ float
 266 0026 40F20003 		movw	r3, #:lower16:dt
 267 002a C0F20003 		movt	r3, #:upper16:dt
 268 002e 1B68     		ldr	r3, [r3, #0]	@ float
 269 0030 1846     		mov	r0, r3
 270 0032 7969     		ldr	r1, [r7, #20]	@ float
 271 0034 FFF7FEFF 		bl	__aeabi_fmul
 272 0038 0346     		mov	r3, r0
 273 003a 2046     		mov	r0, r4
 274 003c 1946     		mov	r1, r3
 275 003e FFF7FEFF 		bl	__aeabi_fadd
 276 0042 0346     		mov	r3, r0
 277 0044 1A46     		mov	r2, r3
 278 0046 7B68     		ldr	r3, [r7, #4]
 279 0048 1A60     		str	r2, [r3, #0]	@ float
  31:../Sources/Interrupts.c **** 	return Kp*error+Kd*dErr+Ki**errorSum;
 280              		.loc 1 31 0
 281 004a 40F20003 		movw	r3, #:lower16:Kp
 282 004e C0F20003 		movt	r3, #:upper16:Kp
 283 0052 1B68     		ldr	r3, [r3, #0]	@ float
 284 0054 1846     		mov	r0, r3
 285 0056 7969     		ldr	r1, [r7, #20]	@ float
 286 0058 FFF7FEFF 		bl	__aeabi_fmul
 287 005c 0346     		mov	r3, r0
 288 005e 1C46     		mov	r4, r3
 289 0060 40F20003 		movw	r3, #:lower16:Kd
 290 0064 C0F20003 		movt	r3, #:upper16:Kd
 291 0068 1B68     		ldr	r3, [r3, #0]	@ float
 292 006a 1846     		mov	r0, r3
 293 006c 3968     		ldr	r1, [r7, #0]	@ float
 294 006e FFF7FEFF 		bl	__aeabi_fmul
 295 0072 0346     		mov	r3, r0
 296 0074 2046     		mov	r0, r4
 297 0076 1946     		mov	r1, r3
 298 0078 FFF7FEFF 		bl	__aeabi_fadd
 299 007c 0346     		mov	r3, r0
 300 007e 1C46     		mov	r4, r3
 301 0080 7B68     		ldr	r3, [r7, #4]
 302 0082 1A68     		ldr	r2, [r3, #0]	@ float
 303 0084 40F20003 		movw	r3, #:lower16:Ki
 304 0088 C0F20003 		movt	r3, #:upper16:Ki
 305 008c 1B68     		ldr	r3, [r3, #0]	@ float
 306 008e 1046     		mov	r0, r2
 307 0090 1946     		mov	r1, r3
 308 0092 FFF7FEFF 		bl	__aeabi_fmul
 309 0096 0346     		mov	r3, r0
 310 0098 2046     		mov	r0, r4
 311 009a 1946     		mov	r1, r3
 312 009c FFF7FEFF 		bl	__aeabi_fadd
 313 00a0 0346     		mov	r3, r0
  32:../Sources/Interrupts.c **** }
 314              		.loc 1 32 0
 315 00a2 1846     		mov	r0, r3
 316 00a4 07F11C07 		add	r7, r7, #28
 317 00a8 BD46     		mov	sp, r7
 318 00aa 90BD     		pop	{r4, r7, pc}
 319              		.cfi_endproc
 320              	.LFE0:
 322              		.align	2
 323              		.global	PID_yaw
 324              		.thumb
 325              		.thumb_func
 327              	PID_yaw:
 328              	.LFB1:
  33:../Sources/Interrupts.c **** float PID_yaw(int setpoint, float measured_value,float dErr)
  34:../Sources/Interrupts.c **** {
 329              		.loc 1 34 0
 330              		.cfi_startproc
 331              		@ args = 0, pretend = 0, frame = 24
 332              		@ frame_needed = 1, uses_anonymous_args = 0
 333 00ac 90B5     		push	{r4, r7, lr}
 334              	.LCFI3:
 335              		.cfi_def_cfa_offset 12
 336              		.cfi_offset 4, -12
 337              		.cfi_offset 7, -8
 338              		.cfi_offset 14, -4
 339 00ae 87B0     		sub	sp, sp, #28
 340              	.LCFI4:
 341              		.cfi_def_cfa_offset 40
 342 00b0 00AF     		add	r7, sp, #0
 343              	.LCFI5:
 344              		.cfi_def_cfa_register 7
 345 00b2 F860     		str	r0, [r7, #12]
 346 00b4 B960     		str	r1, [r7, #8]	@ float
 347 00b6 7A60     		str	r2, [r7, #4]	@ float
  35:../Sources/Interrupts.c **** 	float error;
  36:../Sources/Interrupts.c **** 	error=setpoint+measured_value;
 348              		.loc 1 36 0
 349 00b8 F868     		ldr	r0, [r7, #12]
 350 00ba FFF7FEFF 		bl	__aeabi_i2f
 351 00be 0346     		mov	r3, r0
 352 00c0 1846     		mov	r0, r3
 353 00c2 B968     		ldr	r1, [r7, #8]	@ float
 354 00c4 FFF7FEFF 		bl	__aeabi_fadd
 355 00c8 0346     		mov	r3, r0
 356 00ca 7B61     		str	r3, [r7, #20]	@ float
  37:../Sources/Interrupts.c **** 	return zKp*error+zKd*dErr;
 357              		.loc 1 37 0
 358 00cc 40F20003 		movw	r3, #:lower16:zKp
 359 00d0 C0F20003 		movt	r3, #:upper16:zKp
 360 00d4 1B68     		ldr	r3, [r3, #0]	@ float
 361 00d6 1846     		mov	r0, r3
 362 00d8 7969     		ldr	r1, [r7, #20]	@ float
 363 00da FFF7FEFF 		bl	__aeabi_fmul
 364 00de 0346     		mov	r3, r0
 365 00e0 1C46     		mov	r4, r3
 366 00e2 40F20003 		movw	r3, #:lower16:zKd
 367 00e6 C0F20003 		movt	r3, #:upper16:zKd
 368 00ea 1B68     		ldr	r3, [r3, #0]	@ float
 369 00ec 1846     		mov	r0, r3
 370 00ee 7968     		ldr	r1, [r7, #4]	@ float
 371 00f0 FFF7FEFF 		bl	__aeabi_fmul
 372 00f4 0346     		mov	r3, r0
 373 00f6 2046     		mov	r0, r4
 374 00f8 1946     		mov	r1, r3
 375 00fa FFF7FEFF 		bl	__aeabi_fadd
 376 00fe 0346     		mov	r3, r0
  38:../Sources/Interrupts.c **** }
 377              		.loc 1 38 0
 378 0100 1846     		mov	r0, r3
 379 0102 07F11C07 		add	r7, r7, #28
 380 0106 BD46     		mov	sp, r7
 381 0108 90BD     		pop	{r4, r7, pc}
 382              		.cfi_endproc
 383              	.LFE1:
 385              		.global	__aeabi_fsub
 386 010a 00BF     		.align	2
 387              		.global	PID_ALT_HOLD
 388              		.thumb
 389              		.thumb_func
 391              	PID_ALT_HOLD:
 392              	.LFB2:
  39:../Sources/Interrupts.c **** 
  40:../Sources/Interrupts.c **** float PID_ALT_HOLD(float setpoint, float measured_value,float *errorSum,float prev_error)
  41:../Sources/Interrupts.c **** {
 393              		.loc 1 41 0
 394              		.cfi_startproc
 395              		@ args = 0, pretend = 0, frame = 24
 396              		@ frame_needed = 1, uses_anonymous_args = 0
 397 010c 90B5     		push	{r4, r7, lr}
 398              	.LCFI6:
 399              		.cfi_def_cfa_offset 12
 400              		.cfi_offset 4, -12
 401              		.cfi_offset 7, -8
 402              		.cfi_offset 14, -4
 403 010e 87B0     		sub	sp, sp, #28
 404              	.LCFI7:
 405              		.cfi_def_cfa_offset 40
 406 0110 00AF     		add	r7, sp, #0
 407              	.LCFI8:
 408              		.cfi_def_cfa_register 7
 409 0112 F860     		str	r0, [r7, #12]	@ float
 410 0114 B960     		str	r1, [r7, #8]	@ float
 411 0116 7A60     		str	r2, [r7, #4]
 412 0118 3B60     		str	r3, [r7, #0]	@ float
  42:../Sources/Interrupts.c **** 	float error,dErr;
  43:../Sources/Interrupts.c **** 	error=setpoint-measured_value;
 413              		.loc 1 43 0
 414 011a F868     		ldr	r0, [r7, #12]	@ float
 415 011c B968     		ldr	r1, [r7, #8]	@ float
 416 011e FFF7FEFF 		bl	__aeabi_fsub
 417 0122 0346     		mov	r3, r0
 418 0124 7B61     		str	r3, [r7, #20]	@ float
  44:../Sources/Interrupts.c **** 	dErr=error-prev_error;
 419              		.loc 1 44 0
 420 0126 7869     		ldr	r0, [r7, #20]	@ float
 421 0128 3968     		ldr	r1, [r7, #0]	@ float
 422 012a FFF7FEFF 		bl	__aeabi_fsub
 423 012e 0346     		mov	r3, r0
 424 0130 3B61     		str	r3, [r7, #16]	@ float
  45:../Sources/Interrupts.c **** 	*errorSum=*errorSum+error*dt;
 425              		.loc 1 45 0
 426 0132 7B68     		ldr	r3, [r7, #4]
 427 0134 1C68     		ldr	r4, [r3, #0]	@ float
 428 0136 40F20003 		movw	r3, #:lower16:dt
 429 013a C0F20003 		movt	r3, #:upper16:dt
 430 013e 1B68     		ldr	r3, [r3, #0]	@ float
 431 0140 1846     		mov	r0, r3
 432 0142 7969     		ldr	r1, [r7, #20]	@ float
 433 0144 FFF7FEFF 		bl	__aeabi_fmul
 434 0148 0346     		mov	r3, r0
 435 014a 2046     		mov	r0, r4
 436 014c 1946     		mov	r1, r3
 437 014e FFF7FEFF 		bl	__aeabi_fadd
 438 0152 0346     		mov	r3, r0
 439 0154 1A46     		mov	r2, r3
 440 0156 7B68     		ldr	r3, [r7, #4]
 441 0158 1A60     		str	r2, [r3, #0]	@ float
  46:../Sources/Interrupts.c **** 	return Alt_Kp*error+Alt_Kd*dErr+Alt_Ki**errorSum;
 442              		.loc 1 46 0
 443 015a 40F20003 		movw	r3, #:lower16:Alt_Kp
 444 015e C0F20003 		movt	r3, #:upper16:Alt_Kp
 445 0162 1B68     		ldr	r3, [r3, #0]	@ float
 446 0164 1846     		mov	r0, r3
 447 0166 7969     		ldr	r1, [r7, #20]	@ float
 448 0168 FFF7FEFF 		bl	__aeabi_fmul
 449 016c 0346     		mov	r3, r0
 450 016e 1C46     		mov	r4, r3
 451 0170 40F20003 		movw	r3, #:lower16:Alt_Kd
 452 0174 C0F20003 		movt	r3, #:upper16:Alt_Kd
 453 0178 1B68     		ldr	r3, [r3, #0]	@ float
 454 017a 1846     		mov	r0, r3
 455 017c 3969     		ldr	r1, [r7, #16]	@ float
 456 017e FFF7FEFF 		bl	__aeabi_fmul
 457 0182 0346     		mov	r3, r0
 458 0184 2046     		mov	r0, r4
 459 0186 1946     		mov	r1, r3
 460 0188 FFF7FEFF 		bl	__aeabi_fadd
 461 018c 0346     		mov	r3, r0
 462 018e 1C46     		mov	r4, r3
 463 0190 7B68     		ldr	r3, [r7, #4]
 464 0192 1A68     		ldr	r2, [r3, #0]	@ float
 465 0194 40F20003 		movw	r3, #:lower16:Alt_Ki
 466 0198 C0F20003 		movt	r3, #:upper16:Alt_Ki
 467 019c 1B68     		ldr	r3, [r3, #0]	@ float
 468 019e 1046     		mov	r0, r2
 469 01a0 1946     		mov	r1, r3
 470 01a2 FFF7FEFF 		bl	__aeabi_fmul
 471 01a6 0346     		mov	r3, r0
 472 01a8 2046     		mov	r0, r4
 473 01aa 1946     		mov	r1, r3
 474 01ac FFF7FEFF 		bl	__aeabi_fadd
 475 01b0 0346     		mov	r3, r0
  47:../Sources/Interrupts.c **** }
 476              		.loc 1 47 0
 477 01b2 1846     		mov	r0, r3
 478 01b4 07F11C07 		add	r7, r7, #28
 479 01b8 BD46     		mov	sp, r7
 480 01ba 90BD     		pop	{r4, r7, pc}
 481              		.cfi_endproc
 482              	.LFE2:
 484              		.global	__aeabi_fcmpgt
 485              		.global	__aeabi_fcmplt
 486              		.align	2
 487              		.global	read_BMP180
 488              		.thumb
 489              		.thumb_func
 491              	read_BMP180:
 492              	.LFB3:
  48:../Sources/Interrupts.c **** 
  49:../Sources/Interrupts.c **** void read_BMP180()
  50:../Sources/Interrupts.c **** {
 493              		.loc 1 50 0
 494              		.cfi_startproc
 495              		@ args = 0, pretend = 0, frame = 0
 496              		@ frame_needed = 1, uses_anonymous_args = 0
 497 01bc 80B5     		push	{r7, lr}
 498              	.LCFI9:
 499              		.cfi_def_cfa_offset 8
 500              		.cfi_offset 7, -8
 501              		.cfi_offset 14, -4
 502 01be 00AF     		add	r7, sp, #0
 503              	.LCFI10:
 504              		.cfi_def_cfa_register 7
  51:../Sources/Interrupts.c **** 	if(No%(PIT0_OVERFLOW_FREQUENCY/200)==0 && flag==1)
 505              		.loc 1 51 0
 506 01c0 40F20003 		movw	r3, #:lower16:No
 507 01c4 C0F20003 		movt	r3, #:upper16:No
 508 01c8 1B68     		ldr	r3, [r3, #0]
 509 01ca 03F00103 		and	r3, r3, #1
 510 01ce 002B     		cmp	r3, #0
 511 01d0 18D1     		bne	.L8
 512              		.loc 1 51 0 is_stmt 0 discriminator 1
 513 01d2 40F20003 		movw	r3, #:lower16:flag
 514 01d6 C0F20003 		movt	r3, #:upper16:flag
 515 01da 1B88     		ldrh	r3, [r3, #0]
 516 01dc 1BB2     		sxth	r3, r3
 517 01de 012B     		cmp	r3, #1
 518 01e0 10D1     		bne	.L8
  52:../Sources/Interrupts.c **** 		{
  53:../Sources/Interrupts.c **** 			BMP180_read_temp_interrupt();
 519              		.loc 1 53 0 is_stmt 1
 520 01e2 FFF7FEFF 		bl	BMP180_read_temp_interrupt
  54:../Sources/Interrupts.c **** 			I2CWriteRegister(BMP180_ADDR,BMP180_REG_CONTROL,BMP180_CMD_READ_PRESS + (BMP180_OSS<<6));
 521              		.loc 1 54 0
 522 01e6 4FF07700 		mov	r0, #119
 523 01ea 4FF0F401 		mov	r1, #244
 524 01ee 4FF0F402 		mov	r2, #244
 525 01f2 FFF7FEFF 		bl	I2CWriteRegister
  55:../Sources/Interrupts.c **** 			flag=0;
 526              		.loc 1 55 0
 527 01f6 40F20003 		movw	r3, #:lower16:flag
 528 01fa C0F20003 		movt	r3, #:upper16:flag
 529 01fe 4FF00002 		mov	r2, #0
 530 0202 1A80     		strh	r2, [r3, #0]	@ movhi
 531              	.L8:
  56:../Sources/Interrupts.c **** 		}
  57:../Sources/Interrupts.c **** 		if(No%(PIT0_OVERFLOW_FREQUENCY/25)==0)	
 532              		.loc 1 57 0
 533 0204 40F20003 		movw	r3, #:lower16:No
 534 0208 C0F20003 		movt	r3, #:upper16:No
 535 020c 1B68     		ldr	r3, [r3, #0]
 536 020e 03F00F03 		and	r3, r3, #15
 537 0212 002B     		cmp	r3, #0
 538 0214 74D1     		bne	.L7
  58:../Sources/Interrupts.c **** 		{
  59:../Sources/Interrupts.c **** 			BMP180_read_pressure_interrupt();
 539              		.loc 1 59 0
 540 0216 FFF7FEFF 		bl	BMP180_read_pressure_interrupt
  60:../Sources/Interrupts.c **** 			I2CWriteRegister(BMP180_ADDR,BMP180_REG_CONTROL,BMP180_CMD_READ_TEMP);
 541              		.loc 1 60 0
 542 021a 4FF07700 		mov	r0, #119
 543 021e 4FF0F401 		mov	r1, #244
 544 0222 4FF02E02 		mov	r2, #46
 545 0226 FFF7FEFF 		bl	I2CWriteRegister
  61:../Sources/Interrupts.c **** 			errorPrev_alt=setpoint_alt-relative_altittude;
 546              		.loc 1 61 0
 547 022a 40F20003 		movw	r3, #:lower16:setpoint_alt
 548 022e C0F20003 		movt	r3, #:upper16:setpoint_alt
 549 0232 1A68     		ldr	r2, [r3, #0]	@ float
 550 0234 40F20003 		movw	r3, #:lower16:relative_altittude
 551 0238 C0F20003 		movt	r3, #:upper16:relative_altittude
 552 023c 1B68     		ldr	r3, [r3, #0]	@ float
 553 023e 1046     		mov	r0, r2
 554 0240 1946     		mov	r1, r3
 555 0242 FFF7FEFF 		bl	__aeabi_fsub
 556 0246 0346     		mov	r3, r0
 557 0248 1A46     		mov	r2, r3
 558 024a 40F20003 		movw	r3, #:lower16:errorPrev_alt
 559 024e C0F20003 		movt	r3, #:upper16:errorPrev_alt
 560 0252 1A60     		str	r2, [r3, #0]	@ float
  62:../Sources/Interrupts.c **** 			BMP180_get_altittude();
 561              		.loc 1 62 0
 562 0254 FFF7FEFF 		bl	BMP180_get_altittude
  63:../Sources/Interrupts.c **** 			output_ALT=PID_ALT_HOLD(setpoint_alt,relative_altittude,&errorSum_alt,errorPrev_alt);
 563              		.loc 1 63 0
 564 0258 40F20003 		movw	r3, #:lower16:setpoint_alt
 565 025c C0F20003 		movt	r3, #:upper16:setpoint_alt
 566 0260 1968     		ldr	r1, [r3, #0]	@ float
 567 0262 40F20003 		movw	r3, #:lower16:relative_altittude
 568 0266 C0F20003 		movt	r3, #:upper16:relative_altittude
 569 026a 1A68     		ldr	r2, [r3, #0]	@ float
 570 026c 40F20003 		movw	r3, #:lower16:errorPrev_alt
 571 0270 C0F20003 		movt	r3, #:upper16:errorPrev_alt
 572 0274 1B68     		ldr	r3, [r3, #0]	@ float
 573 0276 0846     		mov	r0, r1
 574 0278 1146     		mov	r1, r2
 575 027a 40F20002 		movw	r2, #:lower16:errorSum_alt
 576 027e C0F20002 		movt	r2, #:upper16:errorSum_alt
 577 0282 FFF7FEFF 		bl	PID_ALT_HOLD
 578 0286 0246     		mov	r2, r0
 579 0288 40F20003 		movw	r3, #:lower16:output_ALT
 580 028c C0F20003 		movt	r3, #:upper16:output_ALT
 581 0290 1A60     		str	r2, [r3, #0]	@ float
  64:../Sources/Interrupts.c **** 			if(output_ALT>150) output_ALT=150;
 582              		.loc 1 64 0
 583 0292 40F20003 		movw	r3, #:lower16:output_ALT
 584 0296 C0F20003 		movt	r3, #:upper16:output_ALT
 585 029a 1B68     		ldr	r3, [r3, #0]	@ float
 586 029c 1846     		mov	r0, r3
 587 029e 4FF00001 		mov	r1, #0
 588 02a2 C4F21631 		movt	r1, 17174
 589 02a6 FFF7FEFF 		bl	__aeabi_fcmpgt
 590 02aa 0346     		mov	r3, r0
 591 02ac 002B     		cmp	r3, #0
 592 02ae 08D0     		beq	.L10
 593              	.L14:
 594              		.loc 1 64 0 is_stmt 0 discriminator 1
 595 02b0 40F20003 		movw	r3, #:lower16:output_ALT
 596 02b4 C0F20003 		movt	r3, #:upper16:output_ALT
 597 02b8 4FF00002 		mov	r2, #0
 598 02bc C4F21632 		movt	r2, 17174
 599 02c0 1A60     		str	r2, [r3, #0]	@ float
 600              	.L10:
  65:../Sources/Interrupts.c **** 			if(output_ALT<-150) output_ALT=-150;
 601              		.loc 1 65 0 is_stmt 1
 602 02c2 40F20003 		movw	r3, #:lower16:output_ALT
 603 02c6 C0F20003 		movt	r3, #:upper16:output_ALT
 604 02ca 1B68     		ldr	r3, [r3, #0]	@ float
 605 02cc 1846     		mov	r0, r3
 606 02ce 4FF00001 		mov	r1, #0
 607 02d2 CCF21631 		movt	r1, 49942
 608 02d6 FFF7FEFF 		bl	__aeabi_fcmplt
 609 02da 0346     		mov	r3, r0
 610 02dc 002B     		cmp	r3, #0
 611 02de 08D0     		beq	.L12
 612              	.L15:
 613              		.loc 1 65 0 is_stmt 0 discriminator 1
 614 02e0 40F20003 		movw	r3, #:lower16:output_ALT
 615 02e4 C0F20003 		movt	r3, #:upper16:output_ALT
 616 02e8 4FF00002 		mov	r2, #0
 617 02ec CCF21632 		movt	r2, 49942
 618 02f0 1A60     		str	r2, [r3, #0]	@ float
 619              	.L12:
  66:../Sources/Interrupts.c **** 			flag=1;
 620              		.loc 1 66 0 is_stmt 1
 621 02f2 40F20003 		movw	r3, #:lower16:flag
 622 02f6 C0F20003 		movt	r3, #:upper16:flag
 623 02fa 4FF00102 		mov	r2, #1
 624 02fe 1A80     		strh	r2, [r3, #0]	@ movhi
 625              	.L7:
  67:../Sources/Interrupts.c **** 		}
  68:../Sources/Interrupts.c **** }
 626              		.loc 1 68 0
 627 0300 80BD     		pop	{r7, pc}
 628              		.cfi_endproc
 629              	.LFE3:
 631              		.global	t
 632              		.bss
 633 0039 000000   		.align	2
 636              	t:
 637 003c 00000000 		.space	4
 638              		.comm	tt,40,4
 639              		.global	__aeabi_f2iz
 640              		.text
 641 0302 00BF     		.align	2
 642              		.global	PID_Interrupt
 643              		.thumb
 644              		.thumb_func
 646              	PID_Interrupt:
 647              	.LFB4:
  69:../Sources/Interrupts.c **** int32_t t=0,tt[10];
  70:../Sources/Interrupts.c **** 
  71:../Sources/Interrupts.c **** void PID_Interrupt(void)
  72:../Sources/Interrupts.c **** {
 648              		.loc 1 72 0
 649              		.cfi_startproc
 650              		@ args = 0, pretend = 0, frame = 0
 651              		@ frame_needed = 1, uses_anonymous_args = 0
 652 0304 80B5     		push	{r7, lr}
 653              	.LCFI11:
 654              		.cfi_def_cfa_offset 8
 655              		.cfi_offset 7, -8
 656              		.cfi_offset 14, -4
 657 0306 00AF     		add	r7, sp, #0
 658              	.LCFI12:
 659              		.cfi_def_cfa_register 7
  73:../Sources/Interrupts.c **** 	//FTM1_CNT=0; 2015.11 idõmérésre van azthiszem
  74:../Sources/Interrupts.c **** 	tt[0]=t-ticker;
 660              		.loc 1 74 0
 661 0308 40F20003 		movw	r3, #:lower16:t
 662 030c C0F20003 		movt	r3, #:upper16:t
 663 0310 1B68     		ldr	r3, [r3, #0]
 664 0312 1A46     		mov	r2, r3
 665 0314 4FF4E043 		mov	r3, #28672
 666 0318 C4F20303 		movt	r3, 16387
 667 031c D3F80411 		ldr	r1, [r3, #260]
 668 0320 48F21F53 		movw	r3, #34079
 669 0324 C5F2EB13 		movt	r3, 20971
 670 0328 A3FB0103 		umull	r0, r3, r3, r1
 671 032c 4FEA5313 		lsr	r3, r3, #5
 672 0330 D31A     		subs	r3, r2, r3
 673 0332 1A46     		mov	r2, r3
 674 0334 40F20003 		movw	r3, #:lower16:tt
 675 0338 C0F20003 		movt	r3, #:upper16:tt
 676 033c 1A60     		str	r2, [r3, #0]
  75:../Sources/Interrupts.c **** 	t=ticker;
 677              		.loc 1 75 0
 678 033e 4FF4E043 		mov	r3, #28672
 679 0342 C4F20303 		movt	r3, 16387
 680 0346 D3F80421 		ldr	r2, [r3, #260]
 681 034a 48F21F53 		movw	r3, #34079
 682 034e C5F2EB13 		movt	r3, 20971
 683 0352 A3FB0213 		umull	r1, r3, r3, r2
 684 0356 4FEA5313 		lsr	r3, r3, #5
 685 035a 1A46     		mov	r2, r3
 686 035c 40F20003 		movw	r3, #:lower16:t
 687 0360 C0F20003 		movt	r3, #:upper16:t
 688 0364 1A60     		str	r2, [r3, #0]
  76:../Sources/Interrupts.c **** 	No++;
 689              		.loc 1 76 0
 690 0366 40F20003 		movw	r3, #:lower16:No
 691 036a C0F20003 		movt	r3, #:upper16:No
 692 036e 1B68     		ldr	r3, [r3, #0]
 693 0370 03F10102 		add	r2, r3, #1
 694 0374 40F20003 		movw	r3, #:lower16:No
 695 0378 C0F20003 		movt	r3, #:upper16:No
 696 037c 1A60     		str	r2, [r3, #0]
  77:../Sources/Interrupts.c **** 
  78:../Sources/Interrupts.c **** 	//DMAread_MPU6050();
  79:../Sources/Interrupts.c **** 	read_MPU6050();
 697              		.loc 1 79 0
 698 037e FFF7FEFF 		bl	read_MPU6050
  80:../Sources/Interrupts.c **** 	tt[1]=t-ticker;
 699              		.loc 1 80 0
 700 0382 40F20003 		movw	r3, #:lower16:t
 701 0386 C0F20003 		movt	r3, #:upper16:t
 702 038a 1B68     		ldr	r3, [r3, #0]
 703 038c 1A46     		mov	r2, r3
 704 038e 4FF4E043 		mov	r3, #28672
 705 0392 C4F20303 		movt	r3, 16387
 706 0396 D3F80411 		ldr	r1, [r3, #260]
 707 039a 48F21F53 		movw	r3, #34079
 708 039e C5F2EB13 		movt	r3, 20971
 709 03a2 A3FB0103 		umull	r0, r3, r3, r1
 710 03a6 4FEA5313 		lsr	r3, r3, #5
 711 03aa D31A     		subs	r3, r2, r3
 712 03ac 1A46     		mov	r2, r3
 713 03ae 40F20003 		movw	r3, #:lower16:tt
 714 03b2 C0F20003 		movt	r3, #:upper16:tt
 715 03b6 5A60     		str	r2, [r3, #4]
  81:../Sources/Interrupts.c **** 	t=ticker;
 716              		.loc 1 81 0
 717 03b8 4FF4E043 		mov	r3, #28672
 718 03bc C4F20303 		movt	r3, 16387
 719 03c0 D3F80421 		ldr	r2, [r3, #260]
 720 03c4 48F21F53 		movw	r3, #34079
 721 03c8 C5F2EB13 		movt	r3, 20971
 722 03cc A3FB0213 		umull	r1, r3, r3, r2
 723 03d0 4FEA5313 		lsr	r3, r3, #5
 724 03d4 1A46     		mov	r2, r3
 725 03d6 40F20003 		movw	r3, #:lower16:t
 726 03da C0F20003 		movt	r3, #:upper16:t
 727 03de 1A60     		str	r2, [r3, #0]
  82:../Sources/Interrupts.c **** 	Get_Angles();	//882
 728              		.loc 1 82 0
 729 03e0 FFF7FEFF 		bl	Get_Angles
  83:../Sources/Interrupts.c **** 	second_order_complementary_filter();		//kikiserletezeni 2015.12.23
 730              		.loc 1 83 0
 731 03e4 FFF7FEFF 		bl	second_order_complementary_filter
  84:../Sources/Interrupts.c **** //	complementary_filter();	//68
  85:../Sources/Interrupts.c **** //	Convert_Accel();
  86:../Sources/Interrupts.c **** 	tt[1]=t-ticker;
 732              		.loc 1 86 0
 733 03e8 40F20003 		movw	r3, #:lower16:t
 734 03ec C0F20003 		movt	r3, #:upper16:t
 735 03f0 1B68     		ldr	r3, [r3, #0]
 736 03f2 1A46     		mov	r2, r3
 737 03f4 4FF4E043 		mov	r3, #28672
 738 03f8 C4F20303 		movt	r3, 16387
 739 03fc D3F80411 		ldr	r1, [r3, #260]
 740 0400 48F21F53 		movw	r3, #34079
 741 0404 C5F2EB13 		movt	r3, 20971
 742 0408 A3FB0103 		umull	r0, r3, r3, r1
 743 040c 4FEA5313 		lsr	r3, r3, #5
 744 0410 D31A     		subs	r3, r2, r3
 745 0412 1A46     		mov	r2, r3
 746 0414 40F20003 		movw	r3, #:lower16:tt
 747 0418 C0F20003 		movt	r3, #:upper16:tt
 748 041c 5A60     		str	r2, [r3, #4]
  87:../Sources/Interrupts.c **** 	t=ticker;
 749              		.loc 1 87 0
 750 041e 4FF4E043 		mov	r3, #28672
 751 0422 C4F20303 		movt	r3, 16387
 752 0426 D3F80421 		ldr	r2, [r3, #260]
 753 042a 48F21F53 		movw	r3, #34079
 754 042e C5F2EB13 		movt	r3, 20971
 755 0432 A3FB0213 		umull	r1, r3, r3, r2
 756 0436 4FEA5313 		lsr	r3, r3, #5
 757 043a 1A46     		mov	r2, r3
 758 043c 40F20003 		movw	r3, #:lower16:t
 759 0440 C0F20003 		movt	r3, #:upper16:t
 760 0444 1A60     		str	r2, [r3, #0]
  88:../Sources/Interrupts.c **** //	errorSum_x=((9.993/10.0)*errorSum_x)+(error_x*dt);
  89:../Sources/Interrupts.c **** //	errorSum_y=((9.993/10.0)*errorSum_y)+(error_y*dt);
  90:../Sources/Interrupts.c **** 	if(errorSum_x>integral_max)	errorSum_x=integral_max;
 761              		.loc 1 90 0
 762 0446 40F20003 		movw	r3, #:lower16:errorSum_x
 763 044a C0F20003 		movt	r3, #:upper16:errorSum_x
 764 044e 1B68     		ldr	r3, [r3, #0]	@ float
 765 0450 1846     		mov	r0, r3
 766 0452 4FF07C51 		mov	r1, #1056964608
 767 0456 FFF7FEFF 		bl	__aeabi_fcmpgt
 768 045a 0346     		mov	r3, r0
 769 045c 002B     		cmp	r3, #0
 770 045e 06D0     		beq	.L17
 771              	.L39:
 772              		.loc 1 90 0 is_stmt 0 discriminator 1
 773 0460 40F20003 		movw	r3, #:lower16:errorSum_x
 774 0464 C0F20003 		movt	r3, #:upper16:errorSum_x
 775 0468 4FF07C52 		mov	r2, #1056964608
 776 046c 1A60     		str	r2, [r3, #0]	@ float
 777              	.L17:
  91:../Sources/Interrupts.c **** 	if(errorSum_x<-integral_max)	errorSum_x=-integral_max;
 778              		.loc 1 91 0 is_stmt 1
 779 046e 40F20003 		movw	r3, #:lower16:errorSum_x
 780 0472 C0F20003 		movt	r3, #:upper16:errorSum_x
 781 0476 1B68     		ldr	r3, [r3, #0]	@ float
 782 0478 1846     		mov	r0, r3
 783 047a 4FF03F41 		mov	r1, #-1090519040
 784 047e FFF7FEFF 		bl	__aeabi_fcmplt
 785 0482 0346     		mov	r3, r0
 786 0484 002B     		cmp	r3, #0
 787 0486 06D0     		beq	.L19
 788              	.L40:
 789              		.loc 1 91 0 is_stmt 0 discriminator 1
 790 0488 40F20003 		movw	r3, #:lower16:errorSum_x
 791 048c C0F20003 		movt	r3, #:upper16:errorSum_x
 792 0490 4FF03F42 		mov	r2, #-1090519040
 793 0494 1A60     		str	r2, [r3, #0]	@ float
 794              	.L19:
  92:../Sources/Interrupts.c **** 	if(errorSum_y>integral_max)	errorSum_y=integral_max;
 795              		.loc 1 92 0 is_stmt 1
 796 0496 40F20003 		movw	r3, #:lower16:errorSum_y
 797 049a C0F20003 		movt	r3, #:upper16:errorSum_y
 798 049e 1B68     		ldr	r3, [r3, #0]	@ float
 799 04a0 1846     		mov	r0, r3
 800 04a2 4FF07C51 		mov	r1, #1056964608
 801 04a6 FFF7FEFF 		bl	__aeabi_fcmpgt
 802 04aa 0346     		mov	r3, r0
 803 04ac 002B     		cmp	r3, #0
 804 04ae 06D0     		beq	.L21
 805              	.L41:
 806              		.loc 1 92 0 is_stmt 0 discriminator 1
 807 04b0 40F20003 		movw	r3, #:lower16:errorSum_y
 808 04b4 C0F20003 		movt	r3, #:upper16:errorSum_y
 809 04b8 4FF07C52 		mov	r2, #1056964608
 810 04bc 1A60     		str	r2, [r3, #0]	@ float
 811              	.L21:
  93:../Sources/Interrupts.c **** 	if(errorSum_y<-integral_max)	errorSum_y=-integral_max;
 812              		.loc 1 93 0 is_stmt 1
 813 04be 40F20003 		movw	r3, #:lower16:errorSum_y
 814 04c2 C0F20003 		movt	r3, #:upper16:errorSum_y
 815 04c6 1B68     		ldr	r3, [r3, #0]	@ float
 816 04c8 1846     		mov	r0, r3
 817 04ca 4FF03F41 		mov	r1, #-1090519040
 818 04ce FFF7FEFF 		bl	__aeabi_fcmplt
 819 04d2 0346     		mov	r3, r0
 820 04d4 002B     		cmp	r3, #0
 821 04d6 06D0     		beq	.L23
 822              	.L42:
 823              		.loc 1 93 0 is_stmt 0 discriminator 1
 824 04d8 40F20003 		movw	r3, #:lower16:errorSum_y
 825 04dc C0F20003 		movt	r3, #:upper16:errorSum_y
 826 04e0 4FF03F42 		mov	r2, #-1090519040
 827 04e4 1A60     		str	r2, [r3, #0]	@ float
 828              	.L23:
  94:../Sources/Interrupts.c **** 	if(errorSum_alt>integral_alt_max)	errorSum_alt=integral_alt_max;
 829              		.loc 1 94 0 is_stmt 1
 830 04e6 40F20003 		movw	r3, #:lower16:errorSum_alt
 831 04ea C0F20003 		movt	r3, #:upper16:errorSum_alt
 832 04ee 1B68     		ldr	r3, [r3, #0]	@ float
 833 04f0 1846     		mov	r0, r3
 834 04f2 4FF00001 		mov	r1, #0
 835 04f6 C4F22011 		movt	r1, 16672
 836 04fa FFF7FEFF 		bl	__aeabi_fcmpgt
 837 04fe 0346     		mov	r3, r0
 838 0500 002B     		cmp	r3, #0
 839 0502 08D0     		beq	.L25
 840              	.L43:
 841              		.loc 1 94 0 is_stmt 0 discriminator 1
 842 0504 40F20003 		movw	r3, #:lower16:errorSum_alt
 843 0508 C0F20003 		movt	r3, #:upper16:errorSum_alt
 844 050c 4FF00002 		mov	r2, #0
 845 0510 C4F22012 		movt	r2, 16672
 846 0514 1A60     		str	r2, [r3, #0]	@ float
 847              	.L25:
  95:../Sources/Interrupts.c **** 	if(errorSum_alt<-integral_alt_max)	errorSum_alt=-integral_alt_max;
 848              		.loc 1 95 0 is_stmt 1
 849 0516 40F20003 		movw	r3, #:lower16:errorSum_alt
 850 051a C0F20003 		movt	r3, #:upper16:errorSum_alt
 851 051e 1B68     		ldr	r3, [r3, #0]	@ float
 852 0520 1846     		mov	r0, r3
 853 0522 4FF00001 		mov	r1, #0
 854 0526 CCF22011 		movt	r1, 49440
 855 052a FFF7FEFF 		bl	__aeabi_fcmplt
 856 052e 0346     		mov	r3, r0
 857 0530 002B     		cmp	r3, #0
 858 0532 08D0     		beq	.L27
 859              	.L44:
 860              		.loc 1 95 0 is_stmt 0 discriminator 1
 861 0534 40F20003 		movw	r3, #:lower16:errorSum_alt
 862 0538 C0F20003 		movt	r3, #:upper16:errorSum_alt
 863 053c 4FF00002 		mov	r2, #0
 864 0540 CCF22012 		movt	r2, 49440
 865 0544 1A60     		str	r2, [r3, #0]	@ float
 866              	.L27:
  96:../Sources/Interrupts.c **** 	if(basepower<170) {errorSum_x=0, errorSum_y=0;}
 867              		.loc 1 96 0 is_stmt 1
 868 0546 40F20003 		movw	r3, #:lower16:basepower
 869 054a C0F20003 		movt	r3, #:upper16:basepower
 870 054e 1B68     		ldr	r3, [r3, #0]
 871 0550 A92B     		cmp	r3, #169
 872 0552 0DDC     		bgt	.L29
 873              		.loc 1 96 0 is_stmt 0 discriminator 1
 874 0554 40F20003 		movw	r3, #:lower16:errorSum_x
 875 0558 C0F20003 		movt	r3, #:upper16:errorSum_x
 876 055c 4FF00002 		mov	r2, #0
 877 0560 1A60     		str	r2, [r3, #0]	@ float
 878 0562 40F20003 		movw	r3, #:lower16:errorSum_y
 879 0566 C0F20003 		movt	r3, #:upper16:errorSum_y
 880 056a 4FF00002 		mov	r2, #0
 881 056e 1A60     		str	r2, [r3, #0]	@ float
 882              	.L29:
  97:../Sources/Interrupts.c **** 	tt[2]=t-ticker;
 883              		.loc 1 97 0 is_stmt 1
 884 0570 40F20003 		movw	r3, #:lower16:t
 885 0574 C0F20003 		movt	r3, #:upper16:t
 886 0578 1B68     		ldr	r3, [r3, #0]
 887 057a 1A46     		mov	r2, r3
 888 057c 4FF4E043 		mov	r3, #28672
 889 0580 C4F20303 		movt	r3, 16387
 890 0584 D3F80411 		ldr	r1, [r3, #260]
 891 0588 48F21F53 		movw	r3, #34079
 892 058c C5F2EB13 		movt	r3, 20971
 893 0590 A3FB0103 		umull	r0, r3, r3, r1
 894 0594 4FEA5313 		lsr	r3, r3, #5
 895 0598 D31A     		subs	r3, r2, r3
 896 059a 1A46     		mov	r2, r3
 897 059c 40F20003 		movw	r3, #:lower16:tt
 898 05a0 C0F20003 		movt	r3, #:upper16:tt
 899 05a4 9A60     		str	r2, [r3, #8]
  98:../Sources/Interrupts.c **** 	t=ticker;
 900              		.loc 1 98 0
 901 05a6 4FF4E043 		mov	r3, #28672
 902 05aa C4F20303 		movt	r3, 16387
 903 05ae D3F80421 		ldr	r2, [r3, #260]
 904 05b2 48F21F53 		movw	r3, #34079
 905 05b6 C5F2EB13 		movt	r3, 20971
 906 05ba A3FB0213 		umull	r1, r3, r3, r2
 907 05be 4FEA5313 		lsr	r3, r3, #5
 908 05c2 1A46     		mov	r2, r3
 909 05c4 40F20003 		movw	r3, #:lower16:t
 910 05c8 C0F20003 		movt	r3, #:upper16:t
 911 05cc 1A60     		str	r2, [r3, #0]
  99:../Sources/Interrupts.c **** 	output_x=PID_pitchroll(setpoint_x,-COMPLEMENTARY_XANGLE,&errorSum_x,GYRO_XRATE);
 912              		.loc 1 99 0
 913 05ce 40F20003 		movw	r3, #:lower16:setpoint_x
 914 05d2 C0F20003 		movt	r3, #:upper16:setpoint_x
 915 05d6 1968     		ldr	r1, [r3, #0]
 916 05d8 40F20003 		movw	r3, #:lower16:COMPLEMENTARY_XANGLE
 917 05dc C0F20003 		movt	r3, #:upper16:COMPLEMENTARY_XANGLE
 918 05e0 1B68     		ldr	r3, [r3, #0]	@ float
 919 05e2 83F00042 		eor	r2, r3, #-2147483648
 920 05e6 40F20003 		movw	r3, #:lower16:GYRO_XRATE
 921 05ea C0F20003 		movt	r3, #:upper16:GYRO_XRATE
 922 05ee 1B68     		ldr	r3, [r3, #0]	@ float
 923 05f0 0846     		mov	r0, r1
 924 05f2 1146     		mov	r1, r2
 925 05f4 40F20002 		movw	r2, #:lower16:errorSum_x
 926 05f8 C0F20002 		movt	r2, #:upper16:errorSum_x
 927 05fc FFF7FEFF 		bl	PID_pitchroll
 928 0600 0246     		mov	r2, r0
 929 0602 40F20003 		movw	r3, #:lower16:output_x
 930 0606 C0F20003 		movt	r3, #:upper16:output_x
 931 060a 1A60     		str	r2, [r3, #0]	@ float
 100:../Sources/Interrupts.c **** 	output_y=PID_pitchroll(setpoint_y,COMPLEMENTARY_YANGLE,&errorSum_y,-GYRO_YRATE);
 932              		.loc 1 100 0
 933 060c 40F20003 		movw	r3, #:lower16:setpoint_y
 934 0610 C0F20003 		movt	r3, #:upper16:setpoint_y
 935 0614 1968     		ldr	r1, [r3, #0]
 936 0616 40F20003 		movw	r3, #:lower16:COMPLEMENTARY_YANGLE
 937 061a C0F20003 		movt	r3, #:upper16:COMPLEMENTARY_YANGLE
 938 061e 1A68     		ldr	r2, [r3, #0]	@ float
 939 0620 40F20003 		movw	r3, #:lower16:GYRO_YRATE
 940 0624 C0F20003 		movt	r3, #:upper16:GYRO_YRATE
 941 0628 1B68     		ldr	r3, [r3, #0]	@ float
 942 062a 83F00043 		eor	r3, r3, #-2147483648
 943 062e 0846     		mov	r0, r1
 944 0630 1146     		mov	r1, r2
 945 0632 40F20002 		movw	r2, #:lower16:errorSum_y
 946 0636 C0F20002 		movt	r2, #:upper16:errorSum_y
 947 063a FFF7FEFF 		bl	PID_pitchroll
 948 063e 0246     		mov	r2, r0
 949 0640 40F20003 		movw	r3, #:lower16:output_y
 950 0644 C0F20003 		movt	r3, #:upper16:output_y
 951 0648 1A60     		str	r2, [r3, #0]	@ float
 101:../Sources/Interrupts.c **** 	output_z=PID_yaw(setpoint_z,GYRO_ZANGLE,GYRO_ZRATE);
 952              		.loc 1 101 0
 953 064a 40F20003 		movw	r3, #:lower16:setpoint_z
 954 064e C0F20003 		movt	r3, #:upper16:setpoint_z
 955 0652 1968     		ldr	r1, [r3, #0]
 956 0654 40F20003 		movw	r3, #:lower16:GYRO_ZANGLE
 957 0658 C0F20003 		movt	r3, #:upper16:GYRO_ZANGLE
 958 065c 1A68     		ldr	r2, [r3, #0]	@ float
 959 065e 40F20003 		movw	r3, #:lower16:GYRO_ZRATE
 960 0662 C0F20003 		movt	r3, #:upper16:GYRO_ZRATE
 961 0666 1B68     		ldr	r3, [r3, #0]	@ float
 962 0668 0846     		mov	r0, r1
 963 066a 1146     		mov	r1, r2
 964 066c 1A46     		mov	r2, r3
 965 066e FFF7FEFF 		bl	PID_yaw
 966 0672 0246     		mov	r2, r0
 967 0674 40F20003 		movw	r3, #:lower16:output_z
 968 0678 C0F20003 		movt	r3, #:upper16:output_z
 969 067c 1A60     		str	r2, [r3, #0]	@ float
 102:../Sources/Interrupts.c **** 	tt[3]=t-ticker;
 970              		.loc 1 102 0
 971 067e 40F20003 		movw	r3, #:lower16:t
 972 0682 C0F20003 		movt	r3, #:upper16:t
 973 0686 1B68     		ldr	r3, [r3, #0]
 974 0688 1A46     		mov	r2, r3
 975 068a 4FF4E043 		mov	r3, #28672
 976 068e C4F20303 		movt	r3, 16387
 977 0692 D3F80411 		ldr	r1, [r3, #260]
 978 0696 48F21F53 		movw	r3, #34079
 979 069a C5F2EB13 		movt	r3, 20971
 980 069e A3FB0103 		umull	r0, r3, r3, r1
 981 06a2 4FEA5313 		lsr	r3, r3, #5
 982 06a6 D31A     		subs	r3, r2, r3
 983 06a8 1A46     		mov	r2, r3
 984 06aa 40F20003 		movw	r3, #:lower16:tt
 985 06ae C0F20003 		movt	r3, #:upper16:tt
 986 06b2 DA60     		str	r2, [r3, #12]
 103:../Sources/Interrupts.c **** 	t=ticker;
 987              		.loc 1 103 0
 988 06b4 4FF4E043 		mov	r3, #28672
 989 06b8 C4F20303 		movt	r3, 16387
 990 06bc D3F80421 		ldr	r2, [r3, #260]
 991 06c0 48F21F53 		movw	r3, #34079
 992 06c4 C5F2EB13 		movt	r3, 20971
 993 06c8 A3FB0213 		umull	r1, r3, r3, r2
 994 06cc 4FEA5313 		lsr	r3, r3, #5
 995 06d0 1A46     		mov	r2, r3
 996 06d2 40F20003 		movw	r3, #:lower16:t
 997 06d6 C0F20003 		movt	r3, #:upper16:t
 998 06da 1A60     		str	r2, [r3, #0]
 104:../Sources/Interrupts.c **** 	A_f=basepower+output_y-output_z+output_ALT;
 999              		.loc 1 104 0
 1000 06dc 40F20003 		movw	r3, #:lower16:basepower
 1001 06e0 C0F20003 		movt	r3, #:upper16:basepower
 1002 06e4 1B68     		ldr	r3, [r3, #0]
 1003 06e6 1846     		mov	r0, r3
 1004 06e8 FFF7FEFF 		bl	__aeabi_i2f
 1005 06ec 0246     		mov	r2, r0
 1006 06ee 40F20003 		movw	r3, #:lower16:output_y
 1007 06f2 C0F20003 		movt	r3, #:upper16:output_y
 1008 06f6 1B68     		ldr	r3, [r3, #0]	@ float
 1009 06f8 1046     		mov	r0, r2
 1010 06fa 1946     		mov	r1, r3
 1011 06fc FFF7FEFF 		bl	__aeabi_fadd
 1012 0700 0346     		mov	r3, r0
 1013 0702 1A46     		mov	r2, r3
 1014 0704 40F20003 		movw	r3, #:lower16:output_z
 1015 0708 C0F20003 		movt	r3, #:upper16:output_z
 1016 070c 1B68     		ldr	r3, [r3, #0]	@ float
 1017 070e 1046     		mov	r0, r2
 1018 0710 1946     		mov	r1, r3
 1019 0712 FFF7FEFF 		bl	__aeabi_fsub
 1020 0716 0346     		mov	r3, r0
 1021 0718 1A46     		mov	r2, r3
 1022 071a 40F20003 		movw	r3, #:lower16:output_ALT
 1023 071e C0F20003 		movt	r3, #:upper16:output_ALT
 1024 0722 1B68     		ldr	r3, [r3, #0]	@ float
 1025 0724 1046     		mov	r0, r2
 1026 0726 1946     		mov	r1, r3
 1027 0728 FFF7FEFF 		bl	__aeabi_fadd
 1028 072c 0346     		mov	r3, r0
 1029 072e 1846     		mov	r0, r3
 1030 0730 FFF7FEFF 		bl	__aeabi_f2iz
 1031 0734 0246     		mov	r2, r0
 1032 0736 40F20003 		movw	r3, #:lower16:A_f
 1033 073a C0F20003 		movt	r3, #:upper16:A_f
 1034 073e 1A60     		str	r2, [r3, #0]
 105:../Sources/Interrupts.c **** 	C_f=basepower-output_y-output_z+output_ALT;
 1035              		.loc 1 105 0
 1036 0740 40F20003 		movw	r3, #:lower16:basepower
 1037 0744 C0F20003 		movt	r3, #:upper16:basepower
 1038 0748 1B68     		ldr	r3, [r3, #0]
 1039 074a 1846     		mov	r0, r3
 1040 074c FFF7FEFF 		bl	__aeabi_i2f
 1041 0750 0246     		mov	r2, r0
 1042 0752 40F20003 		movw	r3, #:lower16:output_y
 1043 0756 C0F20003 		movt	r3, #:upper16:output_y
 1044 075a 1B68     		ldr	r3, [r3, #0]	@ float
 1045 075c 1046     		mov	r0, r2
 1046 075e 1946     		mov	r1, r3
 1047 0760 FFF7FEFF 		bl	__aeabi_fsub
 1048 0764 0346     		mov	r3, r0
 1049 0766 1A46     		mov	r2, r3
 1050 0768 40F20003 		movw	r3, #:lower16:output_z
 1051 076c C0F20003 		movt	r3, #:upper16:output_z
 1052 0770 1B68     		ldr	r3, [r3, #0]	@ float
 1053 0772 1046     		mov	r0, r2
 1054 0774 1946     		mov	r1, r3
 1055 0776 FFF7FEFF 		bl	__aeabi_fsub
 1056 077a 0346     		mov	r3, r0
 1057 077c 1A46     		mov	r2, r3
 1058 077e 40F20003 		movw	r3, #:lower16:output_ALT
 1059 0782 C0F20003 		movt	r3, #:upper16:output_ALT
 1060 0786 1B68     		ldr	r3, [r3, #0]	@ float
 1061 0788 1046     		mov	r0, r2
 1062 078a 1946     		mov	r1, r3
 1063 078c FFF7FEFF 		bl	__aeabi_fadd
 1064 0790 0346     		mov	r3, r0
 1065 0792 1846     		mov	r0, r3
 1066 0794 FFF7FEFF 		bl	__aeabi_f2iz
 1067 0798 0246     		mov	r2, r0
 1068 079a 40F20003 		movw	r3, #:lower16:C_f
 1069 079e C0F20003 		movt	r3, #:upper16:C_f
 1070 07a2 1A60     		str	r2, [r3, #0]
 106:../Sources/Interrupts.c **** 	B_f=basepower+output_x+output_z+output_ALT; //ha a B motor van feljebb mint a D motor akkor a COMP
 1071              		.loc 1 106 0
 1072 07a4 40F20003 		movw	r3, #:lower16:basepower
 1073 07a8 C0F20003 		movt	r3, #:upper16:basepower
 1074 07ac 1B68     		ldr	r3, [r3, #0]
 1075 07ae 1846     		mov	r0, r3
 1076 07b0 FFF7FEFF 		bl	__aeabi_i2f
 1077 07b4 0246     		mov	r2, r0
 1078 07b6 40F20003 		movw	r3, #:lower16:output_x
 1079 07ba C0F20003 		movt	r3, #:upper16:output_x
 1080 07be 1B68     		ldr	r3, [r3, #0]	@ float
 1081 07c0 1046     		mov	r0, r2
 1082 07c2 1946     		mov	r1, r3
 1083 07c4 FFF7FEFF 		bl	__aeabi_fadd
 1084 07c8 0346     		mov	r3, r0
 1085 07ca 1A46     		mov	r2, r3
 1086 07cc 40F20003 		movw	r3, #:lower16:output_z
 1087 07d0 C0F20003 		movt	r3, #:upper16:output_z
 1088 07d4 1B68     		ldr	r3, [r3, #0]	@ float
 1089 07d6 1046     		mov	r0, r2
 1090 07d8 1946     		mov	r1, r3
 1091 07da FFF7FEFF 		bl	__aeabi_fadd
 1092 07de 0346     		mov	r3, r0
 1093 07e0 1A46     		mov	r2, r3
 1094 07e2 40F20003 		movw	r3, #:lower16:output_ALT
 1095 07e6 C0F20003 		movt	r3, #:upper16:output_ALT
 1096 07ea 1B68     		ldr	r3, [r3, #0]	@ float
 1097 07ec 1046     		mov	r0, r2
 1098 07ee 1946     		mov	r1, r3
 1099 07f0 FFF7FEFF 		bl	__aeabi_fadd
 1100 07f4 0346     		mov	r3, r0
 1101 07f6 1846     		mov	r0, r3
 1102 07f8 FFF7FEFF 		bl	__aeabi_f2iz
 1103 07fc 0246     		mov	r2, r0
 1104 07fe 40F20003 		movw	r3, #:lower16:B_f
 1105 0802 C0F20003 		movt	r3, #:upper16:B_f
 1106 0806 1A60     		str	r2, [r3, #0]
 107:../Sources/Interrupts.c **** 	D_f=basepower-output_x+output_z+output_ALT;
 1107              		.loc 1 107 0
 1108 0808 40F20003 		movw	r3, #:lower16:basepower
 1109 080c C0F20003 		movt	r3, #:upper16:basepower
 1110 0810 1B68     		ldr	r3, [r3, #0]
 1111 0812 1846     		mov	r0, r3
 1112 0814 FFF7FEFF 		bl	__aeabi_i2f
 1113 0818 0246     		mov	r2, r0
 1114 081a 40F20003 		movw	r3, #:lower16:output_x
 1115 081e C0F20003 		movt	r3, #:upper16:output_x
 1116 0822 1B68     		ldr	r3, [r3, #0]	@ float
 1117 0824 1046     		mov	r0, r2
 1118 0826 1946     		mov	r1, r3
 1119 0828 FFF7FEFF 		bl	__aeabi_fsub
 1120 082c 0346     		mov	r3, r0
 1121 082e 1A46     		mov	r2, r3
 1122 0830 40F20003 		movw	r3, #:lower16:output_z
 1123 0834 C0F20003 		movt	r3, #:upper16:output_z
 1124 0838 1B68     		ldr	r3, [r3, #0]	@ float
 1125 083a 1046     		mov	r0, r2
 1126 083c 1946     		mov	r1, r3
 1127 083e FFF7FEFF 		bl	__aeabi_fadd
 1128 0842 0346     		mov	r3, r0
 1129 0844 1A46     		mov	r2, r3
 1130 0846 40F20003 		movw	r3, #:lower16:output_ALT
 1131 084a C0F20003 		movt	r3, #:upper16:output_ALT
 1132 084e 1B68     		ldr	r3, [r3, #0]	@ float
 1133 0850 1046     		mov	r0, r2
 1134 0852 1946     		mov	r1, r3
 1135 0854 FFF7FEFF 		bl	__aeabi_fadd
 1136 0858 0346     		mov	r3, r0
 1137 085a 1846     		mov	r0, r3
 1138 085c FFF7FEFF 		bl	__aeabi_f2iz
 1139 0860 0246     		mov	r2, r0
 1140 0862 40F20003 		movw	r3, #:lower16:D_f
 1141 0866 C0F20003 		movt	r3, #:upper16:D_f
 1142 086a 1A60     		str	r2, [r3, #0]
 108:../Sources/Interrupts.c **** 	A=Convert_FORCEtoPWM(A_f),B=Convert_FORCEtoPWM(B_f),C=Convert_FORCEtoPWM(C_f),D=Convert_FORCEtoPWM
 1143              		.loc 1 108 0
 1144 086c 40F20003 		movw	r3, #:lower16:A_f
 1145 0870 C0F20003 		movt	r3, #:upper16:A_f
 1146 0874 1B68     		ldr	r3, [r3, #0]
 1147 0876 1846     		mov	r0, r3
 1148 0878 FFF7FEFF 		bl	__aeabi_i2f
 1149 087c 0346     		mov	r3, r0
 1150 087e 1846     		mov	r0, r3
 1151 0880 FFF7FEFF 		bl	Convert_FORCEtoPWM
 1152 0884 0346     		mov	r3, r0
 1153 0886 1846     		mov	r0, r3
 1154 0888 FFF7FEFF 		bl	__aeabi_f2iz
 1155 088c 0246     		mov	r2, r0
 1156 088e 40F20003 		movw	r3, #:lower16:A
 1157 0892 C0F20003 		movt	r3, #:upper16:A
 1158 0896 1A60     		str	r2, [r3, #0]
 1159 0898 40F20003 		movw	r3, #:lower16:B_f
 1160 089c C0F20003 		movt	r3, #:upper16:B_f
 1161 08a0 1B68     		ldr	r3, [r3, #0]
 1162 08a2 1846     		mov	r0, r3
 1163 08a4 FFF7FEFF 		bl	__aeabi_i2f
 1164 08a8 0346     		mov	r3, r0
 1165 08aa 1846     		mov	r0, r3
 1166 08ac FFF7FEFF 		bl	Convert_FORCEtoPWM
 1167 08b0 0346     		mov	r3, r0
 1168 08b2 1846     		mov	r0, r3
 1169 08b4 FFF7FEFF 		bl	__aeabi_f2iz
 1170 08b8 0246     		mov	r2, r0
 1171 08ba 40F20003 		movw	r3, #:lower16:B
 1172 08be C0F20003 		movt	r3, #:upper16:B
 1173 08c2 1A60     		str	r2, [r3, #0]
 1174 08c4 40F20003 		movw	r3, #:lower16:C_f
 1175 08c8 C0F20003 		movt	r3, #:upper16:C_f
 1176 08cc 1B68     		ldr	r3, [r3, #0]
 1177 08ce 1846     		mov	r0, r3
 1178 08d0 FFF7FEFF 		bl	__aeabi_i2f
 1179 08d4 0346     		mov	r3, r0
 1180 08d6 1846     		mov	r0, r3
 1181 08d8 FFF7FEFF 		bl	Convert_FORCEtoPWM
 1182 08dc 0346     		mov	r3, r0
 1183 08de 1846     		mov	r0, r3
 1184 08e0 FFF7FEFF 		bl	__aeabi_f2iz
 1185 08e4 0246     		mov	r2, r0
 1186 08e6 40F20003 		movw	r3, #:lower16:C
 1187 08ea C0F20003 		movt	r3, #:upper16:C
 1188 08ee 1A60     		str	r2, [r3, #0]
 1189 08f0 40F20003 		movw	r3, #:lower16:D_f
 1190 08f4 C0F20003 		movt	r3, #:upper16:D_f
 1191 08f8 1B68     		ldr	r3, [r3, #0]
 1192 08fa 1846     		mov	r0, r3
 1193 08fc FFF7FEFF 		bl	__aeabi_i2f
 1194 0900 0346     		mov	r3, r0
 1195 0902 1846     		mov	r0, r3
 1196 0904 FFF7FEFF 		bl	Convert_FORCEtoPWM
 1197 0908 0346     		mov	r3, r0
 1198 090a 1846     		mov	r0, r3
 1199 090c FFF7FEFF 		bl	__aeabi_f2iz
 1200 0910 0246     		mov	r2, r0
 1201 0912 40F20003 		movw	r3, #:lower16:D
 1202 0916 C0F20003 		movt	r3, #:upper16:D
 1203 091a 1A60     		str	r2, [r3, #0]
 109:../Sources/Interrupts.c **** 	tt[4]=t-ticker;
 1204              		.loc 1 109 0
 1205 091c 40F20003 		movw	r3, #:lower16:t
 1206 0920 C0F20003 		movt	r3, #:upper16:t
 1207 0924 1B68     		ldr	r3, [r3, #0]
 1208 0926 1A46     		mov	r2, r3
 1209 0928 4FF4E043 		mov	r3, #28672
 1210 092c C4F20303 		movt	r3, 16387
 1211 0930 D3F80411 		ldr	r1, [r3, #260]
 1212 0934 48F21F53 		movw	r3, #34079
 1213 0938 C5F2EB13 		movt	r3, 20971
 1214 093c A3FB0103 		umull	r0, r3, r3, r1
 1215 0940 4FEA5313 		lsr	r3, r3, #5
 1216 0944 D31A     		subs	r3, r2, r3
 1217 0946 1A46     		mov	r2, r3
 1218 0948 40F20003 		movw	r3, #:lower16:tt
 1219 094c C0F20003 		movt	r3, #:upper16:tt
 1220 0950 1A61     		str	r2, [r3, #16]
 110:../Sources/Interrupts.c **** 	t=ticker;
 1221              		.loc 1 110 0
 1222 0952 4FF4E043 		mov	r3, #28672
 1223 0956 C4F20303 		movt	r3, 16387
 1224 095a D3F80421 		ldr	r2, [r3, #260]
 1225 095e 48F21F53 		movw	r3, #34079
 1226 0962 C5F2EB13 		movt	r3, 20971
 1227 0966 A3FB0213 		umull	r1, r3, r3, r2
 1228 096a 4FEA5313 		lsr	r3, r3, #5
 1229 096e 1A46     		mov	r2, r3
 1230 0970 40F20003 		movw	r3, #:lower16:t
 1231 0974 C0F20003 		movt	r3, #:upper16:t
 1232 0978 1A60     		str	r2, [r3, #0]
 111:../Sources/Interrupts.c **** 	SetMotorPWM(A,B,C,D);	//180
 1233              		.loc 1 111 0
 1234 097a 40F20003 		movw	r3, #:lower16:A
 1235 097e C0F20003 		movt	r3, #:upper16:A
 1236 0982 1868     		ldr	r0, [r3, #0]
 1237 0984 40F20003 		movw	r3, #:lower16:B
 1238 0988 C0F20003 		movt	r3, #:upper16:B
 1239 098c 1968     		ldr	r1, [r3, #0]
 1240 098e 40F20003 		movw	r3, #:lower16:C
 1241 0992 C0F20003 		movt	r3, #:upper16:C
 1242 0996 1A68     		ldr	r2, [r3, #0]
 1243 0998 40F20003 		movw	r3, #:lower16:D
 1244 099c C0F20003 		movt	r3, #:upper16:D
 1245 09a0 1B68     		ldr	r3, [r3, #0]
 1246 09a2 FFF7FEFF 		bl	SetMotorPWM
 112:../Sources/Interrupts.c **** 	if(abs(COMPLEMENTARY_XANGLE)>35 || 35<abs(COMPLEMENTARY_YANGLE) || flag_landing==1) 
 1247              		.loc 1 112 0
 1248 09a6 40F20003 		movw	r3, #:lower16:COMPLEMENTARY_XANGLE
 1249 09aa C0F20003 		movt	r3, #:upper16:COMPLEMENTARY_XANGLE
 1250 09ae 1B68     		ldr	r3, [r3, #0]	@ float
 1251 09b0 1846     		mov	r0, r3
 1252 09b2 FFF7FEFF 		bl	__aeabi_f2iz
 1253 09b6 0346     		mov	r3, r0
 1254 09b8 002B     		cmp	r3, #0
 1255 09ba B8BF     		it	lt
 1256 09bc 5B42     		rsblt	r3, r3, #0
 1257 09be 232B     		cmp	r3, #35
 1258 09c0 14DC     		bgt	.L30
 1259              		.loc 1 112 0 is_stmt 0 discriminator 1
 1260 09c2 40F20003 		movw	r3, #:lower16:COMPLEMENTARY_YANGLE
 1261 09c6 C0F20003 		movt	r3, #:upper16:COMPLEMENTARY_YANGLE
 1262 09ca 1B68     		ldr	r3, [r3, #0]	@ float
 1263 09cc 1846     		mov	r0, r3
 1264 09ce FFF7FEFF 		bl	__aeabi_f2iz
 1265 09d2 0346     		mov	r3, r0
 1266 09d4 002B     		cmp	r3, #0
 1267 09d6 B8BF     		it	lt
 1268 09d8 5B42     		rsblt	r3, r3, #0
 1269 09da 232B     		cmp	r3, #35
 1270 09dc 06DC     		bgt	.L30
 1271 09de 40F20003 		movw	r3, #:lower16:flag_landing
 1272 09e2 C0F20003 		movt	r3, #:upper16:flag_landing
 1273 09e6 1B78     		ldrb	r3, [r3, #0]	@ zero_extendqisi2
 1274 09e8 012B     		cmp	r3, #1
 1275 09ea 67D1     		bne	.L31
 1276              	.L30:
 113:../Sources/Interrupts.c **** 		{
 114:../Sources/Interrupts.c **** 			//SetMotorPWM(0,0,0,0);
 115:../Sources/Interrupts.c **** 			//set_irq_priority (INT_PIT1 - 16, 1);
 116:../Sources/Interrupts.c **** 			//Delay_mS(10000);
 117:../Sources/Interrupts.c **** 			flag_landing=1;
 1277              		.loc 1 117 0 is_stmt 1
 1278 09ec 40F20003 		movw	r3, #:lower16:flag_landing
 1279 09f0 C0F20003 		movt	r3, #:upper16:flag_landing
 1280 09f4 4FF00102 		mov	r2, #1
 1281 09f8 1A70     		strb	r2, [r3, #0]
 118:../Sources/Interrupts.c **** 			if(No%50 == 0 && (A>50 || B>50 || C>50 || D>50)) basepower-=5;
 1282              		.loc 1 118 0
 1283 09fa 40F20003 		movw	r3, #:lower16:No
 1284 09fe C0F20003 		movt	r3, #:upper16:No
 1285 0a02 1A68     		ldr	r2, [r3, #0]
 1286 0a04 48F21F53 		movw	r3, #34079
 1287 0a08 C5F2EB13 		movt	r3, 20971
 1288 0a0c 83FB0203 		smull	r0, r3, r3, r2
 1289 0a10 4FEA2311 		asr	r1, r3, #4
 1290 0a14 4FEAE273 		asr	r3, r2, #31
 1291 0a18 CB1A     		subs	r3, r1, r3
 1292 0a1a 4FF03201 		mov	r1, #50
 1293 0a1e 01FB03F3 		mul	r3, r1, r3
 1294 0a22 D31A     		subs	r3, r2, r3
 1295 0a24 002B     		cmp	r3, #0
 1296 0a26 27D1     		bne	.L32
 1297              		.loc 1 118 0 is_stmt 0 discriminator 1
 1298 0a28 40F20003 		movw	r3, #:lower16:A
 1299 0a2c C0F20003 		movt	r3, #:upper16:A
 1300 0a30 1B68     		ldr	r3, [r3, #0]
 1301 0a32 322B     		cmp	r3, #50
 1302 0a34 14DC     		bgt	.L33
 1303              		.loc 1 118 0 discriminator 2
 1304 0a36 40F20003 		movw	r3, #:lower16:B
 1305 0a3a C0F20003 		movt	r3, #:upper16:B
 1306 0a3e 1B68     		ldr	r3, [r3, #0]
 1307 0a40 322B     		cmp	r3, #50
 1308 0a42 0DDC     		bgt	.L33
 1309              		.loc 1 118 0 discriminator 1
 1310 0a44 40F20003 		movw	r3, #:lower16:C
 1311 0a48 C0F20003 		movt	r3, #:upper16:C
 1312 0a4c 1B68     		ldr	r3, [r3, #0]
 1313 0a4e 322B     		cmp	r3, #50
 1314 0a50 06DC     		bgt	.L33
 1315 0a52 40F20003 		movw	r3, #:lower16:D
 1316 0a56 C0F20003 		movt	r3, #:upper16:D
 1317 0a5a 1B68     		ldr	r3, [r3, #0]
 1318 0a5c 322B     		cmp	r3, #50
 1319 0a5e 0BDD     		ble	.L32
 1320              	.L33:
 1321 0a60 40F20003 		movw	r3, #:lower16:basepower
 1322 0a64 C0F20003 		movt	r3, #:upper16:basepower
 1323 0a68 1B68     		ldr	r3, [r3, #0]
 1324 0a6a A3F10502 		sub	r2, r3, #5
 1325 0a6e 40F20003 		movw	r3, #:lower16:basepower
 1326 0a72 C0F20003 		movt	r3, #:upper16:basepower
 1327 0a76 1A60     		str	r2, [r3, #0]
 1328              	.L32:
 119:../Sources/Interrupts.c **** 			Kp_mem=Kp;Kd_mem=Kd;
 1329              		.loc 1 119 0 is_stmt 1
 1330 0a78 40F20003 		movw	r3, #:lower16:Kp
 1331 0a7c C0F20003 		movt	r3, #:upper16:Kp
 1332 0a80 1A68     		ldr	r2, [r3, #0]	@ float
 1333 0a82 40F20003 		movw	r3, #:lower16:Kp_mem
 1334 0a86 C0F20003 		movt	r3, #:upper16:Kp_mem
 1335 0a8a 1A60     		str	r2, [r3, #0]	@ float
 1336 0a8c 40F20003 		movw	r3, #:lower16:Kd
 1337 0a90 C0F20003 		movt	r3, #:upper16:Kd
 1338 0a94 1A68     		ldr	r2, [r3, #0]	@ float
 1339 0a96 40F20003 		movw	r3, #:lower16:Kd_mem
 1340 0a9a C0F20003 		movt	r3, #:upper16:Kd_mem
 1341 0a9e 1A60     		str	r2, [r3, #0]	@ float
 120:../Sources/Interrupts.c **** 			//Kp=5; Kd=1;
 121:../Sources/Interrupts.c **** 			setpoint_alt=1;
 1342              		.loc 1 121 0
 1343 0aa0 40F20003 		movw	r3, #:lower16:setpoint_alt
 1344 0aa4 C0F20003 		movt	r3, #:upper16:setpoint_alt
 1345 0aa8 4FF07E52 		mov	r2, #1065353216
 1346 0aac 1A60     		str	r2, [r3, #0]	@ float
 122:../Sources/Interrupts.c **** 			//if(A<50 && B<50 && C<50 && D<50) {flag_landing=0; Kp=Kp_mem; Kd=Kd_mem;}
 123:../Sources/Interrupts.c **** 			setpoint_alt=0;
 1347              		.loc 1 123 0
 1348 0aae 40F20003 		movw	r3, #:lower16:setpoint_alt
 1349 0ab2 C0F20003 		movt	r3, #:upper16:setpoint_alt
 1350 0ab6 4FF00002 		mov	r2, #0
 1351 0aba 1A60     		str	r2, [r3, #0]	@ float
 1352              	.L31:
 124:../Sources/Interrupts.c **** 		}
 125:../Sources/Interrupts.c **** 	if(abs(No-flag_kyb)>40) 
 1353              		.loc 1 125 0
 1354 0abc 40F20003 		movw	r3, #:lower16:No
 1355 0ac0 C0F20003 		movt	r3, #:upper16:No
 1356 0ac4 1A68     		ldr	r2, [r3, #0]
 1357 0ac6 40F20003 		movw	r3, #:lower16:flag_kyb
 1358 0aca C0F20003 		movt	r3, #:upper16:flag_kyb
 1359 0ace 1B68     		ldr	r3, [r3, #0]
 1360 0ad0 D31A     		subs	r3, r2, r3
 1361 0ad2 002B     		cmp	r3, #0
 1362 0ad4 B8BF     		it	lt
 1363 0ad6 5B42     		rsblt	r3, r3, #0
 1364 0ad8 282B     		cmp	r3, #40
 1365 0ada 40F3A880 		ble	.L34
 126:../Sources/Interrupts.c **** 		{
 127:../Sources/Interrupts.c **** 		if(No%5 == 0 && setpoint_x>0) setpoint_x-=1;
 1366              		.loc 1 127 0
 1367 0ade 40F20003 		movw	r3, #:lower16:No
 1368 0ae2 C0F20003 		movt	r3, #:upper16:No
 1369 0ae6 1968     		ldr	r1, [r3, #0]
 1370 0ae8 46F26763 		movw	r3, #26215
 1371 0aec C6F26663 		movt	r3, 26214
 1372 0af0 83FB0123 		smull	r2, r3, r3, r1
 1373 0af4 4FEA6302 		asr	r2, r3, #1
 1374 0af8 4FEAE173 		asr	r3, r1, #31
 1375 0afc D21A     		subs	r2, r2, r3
 1376 0afe 1346     		mov	r3, r2
 1377 0b00 4FEA8303 		lsl	r3, r3, #2
 1378 0b04 9B18     		adds	r3, r3, r2
 1379 0b06 CA1A     		subs	r2, r1, r3
 1380 0b08 002A     		cmp	r2, #0
 1381 0b0a 12D1     		bne	.L35
 1382              		.loc 1 127 0 is_stmt 0 discriminator 1
 1383 0b0c 40F20003 		movw	r3, #:lower16:setpoint_x
 1384 0b10 C0F20003 		movt	r3, #:upper16:setpoint_x
 1385 0b14 1B68     		ldr	r3, [r3, #0]
 1386 0b16 002B     		cmp	r3, #0
 1387 0b18 0BDD     		ble	.L35
 1388 0b1a 40F20003 		movw	r3, #:lower16:setpoint_x
 1389 0b1e C0F20003 		movt	r3, #:upper16:setpoint_x
 1390 0b22 1B68     		ldr	r3, [r3, #0]
 1391 0b24 03F1FF32 		add	r2, r3, #-1
 1392 0b28 40F20003 		movw	r3, #:lower16:setpoint_x
 1393 0b2c C0F20003 		movt	r3, #:upper16:setpoint_x
 1394 0b30 1A60     		str	r2, [r3, #0]
 1395              	.L35:
 128:../Sources/Interrupts.c **** 		if(No%5 == 0 && setpoint_x<0) setpoint_x+=1;
 1396              		.loc 1 128 0 is_stmt 1
 1397 0b32 40F20003 		movw	r3, #:lower16:No
 1398 0b36 C0F20003 		movt	r3, #:upper16:No
 1399 0b3a 1968     		ldr	r1, [r3, #0]
 1400 0b3c 46F26763 		movw	r3, #26215
 1401 0b40 C6F26663 		movt	r3, 26214
 1402 0b44 83FB0103 		smull	r0, r3, r3, r1
 1403 0b48 4FEA6302 		asr	r2, r3, #1
 1404 0b4c 4FEAE173 		asr	r3, r1, #31
 1405 0b50 D21A     		subs	r2, r2, r3
 1406 0b52 1346     		mov	r3, r2
 1407 0b54 4FEA8303 		lsl	r3, r3, #2
 1408 0b58 9B18     		adds	r3, r3, r2
 1409 0b5a CA1A     		subs	r2, r1, r3
 1410 0b5c 002A     		cmp	r2, #0
 1411 0b5e 12D1     		bne	.L36
 1412              		.loc 1 128 0 is_stmt 0 discriminator 1
 1413 0b60 40F20003 		movw	r3, #:lower16:setpoint_x
 1414 0b64 C0F20003 		movt	r3, #:upper16:setpoint_x
 1415 0b68 1B68     		ldr	r3, [r3, #0]
 1416 0b6a 002B     		cmp	r3, #0
 1417 0b6c 0BDA     		bge	.L36
 1418 0b6e 40F20003 		movw	r3, #:lower16:setpoint_x
 1419 0b72 C0F20003 		movt	r3, #:upper16:setpoint_x
 1420 0b76 1B68     		ldr	r3, [r3, #0]
 1421 0b78 03F10102 		add	r2, r3, #1
 1422 0b7c 40F20003 		movw	r3, #:lower16:setpoint_x
 1423 0b80 C0F20003 		movt	r3, #:upper16:setpoint_x
 1424 0b84 1A60     		str	r2, [r3, #0]
 1425              	.L36:
 129:../Sources/Interrupts.c **** 		if(No%5 == 0 && setpoint_y>0) setpoint_y-=1;
 1426              		.loc 1 129 0 is_stmt 1
 1427 0b86 40F20003 		movw	r3, #:lower16:No
 1428 0b8a C0F20003 		movt	r3, #:upper16:No
 1429 0b8e 1968     		ldr	r1, [r3, #0]
 1430 0b90 46F26763 		movw	r3, #26215
 1431 0b94 C6F26663 		movt	r3, 26214
 1432 0b98 83FB0123 		smull	r2, r3, r3, r1
 1433 0b9c 4FEA6302 		asr	r2, r3, #1
 1434 0ba0 4FEAE173 		asr	r3, r1, #31
 1435 0ba4 D21A     		subs	r2, r2, r3
 1436 0ba6 1346     		mov	r3, r2
 1437 0ba8 4FEA8303 		lsl	r3, r3, #2
 1438 0bac 9B18     		adds	r3, r3, r2
 1439 0bae CA1A     		subs	r2, r1, r3
 1440 0bb0 002A     		cmp	r2, #0
 1441 0bb2 12D1     		bne	.L37
 1442              		.loc 1 129 0 is_stmt 0 discriminator 1
 1443 0bb4 40F20003 		movw	r3, #:lower16:setpoint_y
 1444 0bb8 C0F20003 		movt	r3, #:upper16:setpoint_y
 1445 0bbc 1B68     		ldr	r3, [r3, #0]
 1446 0bbe 002B     		cmp	r3, #0
 1447 0bc0 0BDD     		ble	.L37
 1448 0bc2 40F20003 		movw	r3, #:lower16:setpoint_y
 1449 0bc6 C0F20003 		movt	r3, #:upper16:setpoint_y
 1450 0bca 1B68     		ldr	r3, [r3, #0]
 1451 0bcc 03F1FF32 		add	r2, r3, #-1
 1452 0bd0 40F20003 		movw	r3, #:lower16:setpoint_y
 1453 0bd4 C0F20003 		movt	r3, #:upper16:setpoint_y
 1454 0bd8 1A60     		str	r2, [r3, #0]
 1455              	.L37:
 130:../Sources/Interrupts.c **** 		if(No%5 == 0 && setpoint_y<0) setpoint_y+=1;
 1456              		.loc 1 130 0 is_stmt 1
 1457 0bda 40F20003 		movw	r3, #:lower16:No
 1458 0bde C0F20003 		movt	r3, #:upper16:No
 1459 0be2 1968     		ldr	r1, [r3, #0]
 1460 0be4 46F26763 		movw	r3, #26215
 1461 0be8 C6F26663 		movt	r3, 26214
 1462 0bec 83FB0103 		smull	r0, r3, r3, r1
 1463 0bf0 4FEA6302 		asr	r2, r3, #1
 1464 0bf4 4FEAE173 		asr	r3, r1, #31
 1465 0bf8 D21A     		subs	r2, r2, r3
 1466 0bfa 1346     		mov	r3, r2
 1467 0bfc 4FEA8303 		lsl	r3, r3, #2
 1468 0c00 9B18     		adds	r3, r3, r2
 1469 0c02 CA1A     		subs	r2, r1, r3
 1470 0c04 002A     		cmp	r2, #0
 1471 0c06 12D1     		bne	.L34
 1472              		.loc 1 130 0 is_stmt 0 discriminator 1
 1473 0c08 40F20003 		movw	r3, #:lower16:setpoint_y
 1474 0c0c C0F20003 		movt	r3, #:upper16:setpoint_y
 1475 0c10 1B68     		ldr	r3, [r3, #0]
 1476 0c12 002B     		cmp	r3, #0
 1477 0c14 0BDA     		bge	.L34
 1478 0c16 40F20003 		movw	r3, #:lower16:setpoint_y
 1479 0c1a C0F20003 		movt	r3, #:upper16:setpoint_y
 1480 0c1e 1B68     		ldr	r3, [r3, #0]
 1481 0c20 03F10102 		add	r2, r3, #1
 1482 0c24 40F20003 		movw	r3, #:lower16:setpoint_y
 1483 0c28 C0F20003 		movt	r3, #:upper16:setpoint_y
 1484 0c2c 1A60     		str	r2, [r3, #0]
 1485              	.L34:
 131:../Sources/Interrupts.c **** 		}
 132:../Sources/Interrupts.c **** 	tt[5]=t-ticker;
 1486              		.loc 1 132 0 is_stmt 1
 1487 0c2e 40F20003 		movw	r3, #:lower16:t
 1488 0c32 C0F20003 		movt	r3, #:upper16:t
 1489 0c36 1B68     		ldr	r3, [r3, #0]
 1490 0c38 1A46     		mov	r2, r3
 1491 0c3a 4FF4E043 		mov	r3, #28672
 1492 0c3e C4F20303 		movt	r3, 16387
 1493 0c42 D3F80411 		ldr	r1, [r3, #260]
 1494 0c46 48F21F53 		movw	r3, #34079
 1495 0c4a C5F2EB13 		movt	r3, 20971
 1496 0c4e A3FB0103 		umull	r0, r3, r3, r1
 1497 0c52 4FEA5313 		lsr	r3, r3, #5
 1498 0c56 D31A     		subs	r3, r2, r3
 1499 0c58 1A46     		mov	r2, r3
 1500 0c5a 40F20003 		movw	r3, #:lower16:tt
 1501 0c5e C0F20003 		movt	r3, #:upper16:tt
 1502 0c62 5A61     		str	r2, [r3, #20]
 133:../Sources/Interrupts.c **** 	t=ticker;
 1503              		.loc 1 133 0
 1504 0c64 4FF4E043 		mov	r3, #28672
 1505 0c68 C4F20303 		movt	r3, 16387
 1506 0c6c D3F80421 		ldr	r2, [r3, #260]
 1507 0c70 48F21F53 		movw	r3, #34079
 1508 0c74 C5F2EB13 		movt	r3, 20971
 1509 0c78 A3FB0213 		umull	r1, r3, r3, r2
 1510 0c7c 4FEA5313 		lsr	r3, r3, #5
 1511 0c80 1A46     		mov	r2, r3
 1512 0c82 40F20003 		movw	r3, #:lower16:t
 1513 0c86 C0F20003 		movt	r3, #:upper16:t
 1514 0c8a 1A60     		str	r2, [r3, #0]
 134:../Sources/Interrupts.c **** 	//read_BMP180();	2015.12.01
 135:../Sources/Interrupts.c **** 	if(No%400==1 && LOW_BATT_FLAG) 
 1515              		.loc 1 135 0
 1516 0c8c 40F20003 		movw	r3, #:lower16:No
 1517 0c90 C0F20003 		movt	r3, #:upper16:No
 1518 0c94 1A68     		ldr	r2, [r3, #0]
 1519 0c96 48F21F53 		movw	r3, #34079
 1520 0c9a C5F2EB13 		movt	r3, 20971
 1521 0c9e 83FB0203 		smull	r0, r3, r3, r2
 1522 0ca2 4FEAE311 		asr	r1, r3, #7
 1523 0ca6 4FEAE273 		asr	r3, r2, #31
 1524 0caa CB1A     		subs	r3, r1, r3
 1525 0cac 4FF4C871 		mov	r1, #400
 1526 0cb0 01FB03F3 		mul	r3, r1, r3
 1527 0cb4 D31A     		subs	r3, r2, r3
 1528 0cb6 012B     		cmp	r3, #1
 1529 0cb8 1BD1     		bne	.L38
 1530              		.loc 1 135 0 is_stmt 0 discriminator 1
 1531 0cba 40F20003 		movw	r3, #:lower16:LOW_BATT_FLAG
 1532 0cbe C0F20003 		movt	r3, #:upper16:LOW_BATT_FLAG
 1533 0cc2 1B88     		ldrh	r3, [r3, #0]
 1534 0cc4 002B     		cmp	r3, #0
 1535 0cc6 14D0     		beq	.L38
 136:../Sources/Interrupts.c **** 		{
 137:../Sources/Interrupts.c **** 		initRed();
 1536              		.loc 1 137 0 is_stmt 1
 1537 0cc8 FFF7FEFF 		bl	initRed
 138:../Sources/Interrupts.c **** 		LED_Toggle_RED;	//enable RED LED
 1538              		.loc 1 138 0
 1539 0ccc 4FF24003 		movw	r3, #61504
 1540 0cd0 C4F20F03 		movt	r3, 16399
 1541 0cd4 4FF48022 		mov	r2, #262144
 1542 0cd8 DA60     		str	r2, [r3, #12]
 139:../Sources/Interrupts.c **** 		basepower-=10;
 1543              		.loc 1 139 0
 1544 0cda 40F20003 		movw	r3, #:lower16:basepower
 1545 0cde C0F20003 		movt	r3, #:upper16:basepower
 1546 0ce2 1B68     		ldr	r3, [r3, #0]
 1547 0ce4 A3F10A02 		sub	r2, r3, #10
 1548 0ce8 40F20003 		movw	r3, #:lower16:basepower
 1549 0cec C0F20003 		movt	r3, #:upper16:basepower
 1550 0cf0 1A60     		str	r2, [r3, #0]
 1551              	.L38:
 140:../Sources/Interrupts.c **** 		}
 141:../Sources/Interrupts.c **** #if DATA_OVER_UART
 142:../Sources/Interrupts.c **** 	//uart_putchar(UART1_BASE_PTR,(char)(D));
 143:../Sources/Interrupts.c **** 	if(No%15==0)	{
 144:../Sources/Interrupts.c **** 		char c[sizeof(float)],i;
 145:../Sources/Interrupts.c **** 		memcpy(c, &COMPLEMENTARY_YANGLE, sizeof(float));
 146:../Sources/Interrupts.c **** 		for(i=0;i<sizeof(float);i++) uart_putchar(UART2_BASE_PTR,c[i]);
 147:../Sources/Interrupts.c **** 		uart_putchar(UART2_BASE_PTR,255);
 148:../Sources/Interrupts.c **** 	}
 149:../Sources/Interrupts.c **** #endif
 150:../Sources/Interrupts.c **** 	enable_irq(INT_ADC0 - 16); adc_flag=0;
 1552              		.loc 1 150 0
 1553 0cf2 4FF03900 		mov	r0, #57
 1554 0cf6 FFF7FEFF 		bl	enable_irq
 1555 0cfa 40F20003 		movw	r3, #:lower16:adc_flag
 1556 0cfe C0F20003 		movt	r3, #:upper16:adc_flag
 1557 0d02 4FF00002 		mov	r2, #0
 1558 0d06 1A70     		strb	r2, [r3, #0]
 151:../Sources/Interrupts.c **** 	clear_PID_interrupt
 1559              		.loc 1 151 0
 1560 0d08 4FF4E043 		mov	r3, #28672
 1561 0d0c C4F20303 		movt	r3, 16387
 1562 0d10 4FF4E042 		mov	r2, #28672
 1563 0d14 C4F20302 		movt	r2, 16387
 1564 0d18 D2F81C21 		ldr	r2, [r2, #284]
 1565 0d1c 42F00102 		orr	r2, r2, #1
 1566 0d20 C3F81C21 		str	r2, [r3, #284]
 152:../Sources/Interrupts.c **** 	tt[6]=t-ticker;
 1567              		.loc 1 152 0
 1568 0d24 40F20003 		movw	r3, #:lower16:t
 1569 0d28 C0F20003 		movt	r3, #:upper16:t
 1570 0d2c 1B68     		ldr	r3, [r3, #0]
 1571 0d2e 1A46     		mov	r2, r3
 1572 0d30 4FF4E043 		mov	r3, #28672
 1573 0d34 C4F20303 		movt	r3, 16387
 1574 0d38 D3F80411 		ldr	r1, [r3, #260]
 1575 0d3c 48F21F53 		movw	r3, #34079
 1576 0d40 C5F2EB13 		movt	r3, 20971
 1577 0d44 A3FB0103 		umull	r0, r3, r3, r1
 1578 0d48 4FEA5313 		lsr	r3, r3, #5
 1579 0d4c D31A     		subs	r3, r2, r3
 1580 0d4e 1A46     		mov	r2, r3
 1581 0d50 40F20003 		movw	r3, #:lower16:tt
 1582 0d54 C0F20003 		movt	r3, #:upper16:tt
 1583 0d58 9A61     		str	r2, [r3, #24]
 153:../Sources/Interrupts.c **** 	t=ticker;
 1584              		.loc 1 153 0
 1585 0d5a 4FF4E043 		mov	r3, #28672
 1586 0d5e C4F20303 		movt	r3, 16387
 1587 0d62 D3F80421 		ldr	r2, [r3, #260]
 1588 0d66 48F21F53 		movw	r3, #34079
 1589 0d6a C5F2EB13 		movt	r3, 20971
 1590 0d6e A3FB0213 		umull	r1, r3, r3, r2
 1591 0d72 4FEA5313 		lsr	r3, r3, #5
 1592 0d76 1A46     		mov	r2, r3
 1593 0d78 40F20003 		movw	r3, #:lower16:t
 1594 0d7c C0F20003 		movt	r3, #:upper16:t
 1595 0d80 1A60     		str	r2, [r3, #0]
 154:../Sources/Interrupts.c **** 	}
 1596              		.loc 1 154 0
 1597 0d82 80BD     		pop	{r7, pc}
 1598              		.cfi_endproc
 1599              	.LFE4:
 1601              		.section	.rodata
 1602              		.align	2
 1603              	.LC0:
 1604 0000 0D0A00   		.ascii	"\015\012\000"
 1605 0003 00       		.text
 1606              		.align	2
 1607              		.global	SDcardw_Interrupt
 1608              		.thumb
 1609              		.thumb_func
 1611              	SDcardw_Interrupt:
 1612              	.LFB5:
 155:../Sources/Interrupts.c **** void SDcardw_Interrupt(void)
 156:../Sources/Interrupts.c **** {
 1613              		.loc 1 156 0
 1614              		.cfi_startproc
 1615              		@ args = 0, pretend = 0, frame = 88
 1616              		@ frame_needed = 1, uses_anonymous_args = 0
 1617 0d84 2DE9F04F 		push	{r4, r5, r6, r7, r8, r9, sl, fp, lr}
 1618              	.LCFI13:
 1619              		.cfi_def_cfa_offset 36
 1620              		.cfi_offset 4, -36
 1621              		.cfi_offset 5, -32
 1622              		.cfi_offset 6, -28
 1623              		.cfi_offset 7, -24
 1624              		.cfi_offset 8, -20
 1625              		.cfi_offset 9, -16
 1626              		.cfi_offset 10, -12
 1627              		.cfi_offset 11, -8
 1628              		.cfi_offset 14, -4
 1629 0d88 A1B0     		sub	sp, sp, #132
 1630              	.LCFI14:
 1631              		.cfi_def_cfa_offset 168
 1632 0d8a 0AAF     		add	r7, sp, #40
 1633              	.LCFI15:
 1634              		.cfi_def_cfa 7, 128
 157:../Sources/Interrupts.c **** 	clear_SDcard_interrupt
 1635              		.loc 1 157 0
 1636 0d8c 4FF4E043 		mov	r3, #28672
 1637 0d90 C4F20303 		movt	r3, 16387
 1638 0d94 4FF4E042 		mov	r2, #28672
 1639 0d98 C4F20302 		movt	r2, 16387
 1640 0d9c D2F82C21 		ldr	r2, [r2, #300]
 1641 0da0 42F00102 		orr	r2, r2, #1
 1642 0da4 C3F82C21 		str	r2, [r3, #300]
 158:../Sources/Interrupts.c **** 	char data[71];
 159:../Sources/Interrupts.c **** 	UINT x;
 160:../Sources/Interrupts.c **** 	int ttt=ticker;
 1643              		.loc 1 160 0
 1644 0da8 4FF4E043 		mov	r3, #28672
 1645 0dac C4F20303 		movt	r3, 16387
 1646 0db0 D3F80421 		ldr	r2, [r3, #260]
 1647 0db4 48F21F53 		movw	r3, #34079
 1648 0db8 C5F2EB13 		movt	r3, 20971
 1649 0dbc A3FB0203 		umull	r0, r3, r3, r2
 1650 0dc0 4FEA5313 		lsr	r3, r3, #5
 1651 0dc4 7B65     		str	r3, [r7, #84]
 161:../Sources/Interrupts.c **** 	write_dT(data,12,(int)No,(int)(100*COMPLEMENTARY_XANGLE),(int)(100*COMPLEMENTARY_YANGLE),(int)(A),
 1652              		.loc 1 161 0
 1653 0dc6 40F20003 		movw	r3, #:lower16:No
 1654 0dca C0F20003 		movt	r3, #:upper16:No
 1655 0dce 1D68     		ldr	r5, [r3, #0]
 1656 0dd0 40F20003 		movw	r3, #:lower16:COMPLEMENTARY_XANGLE
 1657 0dd4 C0F20003 		movt	r3, #:upper16:COMPLEMENTARY_XANGLE
 1658 0dd8 1B68     		ldr	r3, [r3, #0]	@ float
 1659 0dda 1846     		mov	r0, r3
 1660 0ddc 4FF00001 		mov	r1, #0
 1661 0de0 C4F2C821 		movt	r1, 17096
 1662 0de4 FFF7FEFF 		bl	__aeabi_fmul
 1663 0de8 0346     		mov	r3, r0
 1664 0dea 1846     		mov	r0, r3
 1665 0dec FFF7FEFF 		bl	__aeabi_f2iz
 1666 0df0 0446     		mov	r4, r0
 1667 0df2 40F20003 		movw	r3, #:lower16:COMPLEMENTARY_YANGLE
 1668 0df6 C0F20003 		movt	r3, #:upper16:COMPLEMENTARY_YANGLE
 1669 0dfa 1B68     		ldr	r3, [r3, #0]	@ float
 1670 0dfc 1846     		mov	r0, r3
 1671 0dfe 4FF00001 		mov	r1, #0
 1672 0e02 C4F2C821 		movt	r1, 17096
 1673 0e06 FFF7FEFF 		bl	__aeabi_fmul
 1674 0e0a 0346     		mov	r3, r0
 1675 0e0c 1846     		mov	r0, r3
 1676 0e0e FFF7FEFF 		bl	__aeabi_f2iz
 1677 0e12 7860     		str	r0, [r7, #4]
 1678 0e14 40F20003 		movw	r3, #:lower16:A
 1679 0e18 C0F20003 		movt	r3, #:upper16:A
 1680 0e1c 1B68     		ldr	r3, [r3, #0]
 1681 0e1e 3B60     		str	r3, [r7, #0]
 1682 0e20 40F20003 		movw	r3, #:lower16:B
 1683 0e24 C0F20003 		movt	r3, #:upper16:B
 1684 0e28 D3F800B0 		ldr	fp, [r3, #0]
 1685 0e2c 40F20003 		movw	r3, #:lower16:C
 1686 0e30 C0F20003 		movt	r3, #:upper16:C
 1687 0e34 D3F800A0 		ldr	sl, [r3, #0]
 1688 0e38 40F20003 		movw	r3, #:lower16:D
 1689 0e3c C0F20003 		movt	r3, #:upper16:D
 1690 0e40 D3F80090 		ldr	r9, [r3, #0]
 1691 0e44 40F20003 		movw	r3, #:lower16:basepower
 1692 0e48 C0F20003 		movt	r3, #:upper16:basepower
 1693 0e4c D3F80080 		ldr	r8, [r3, #0]
 162:../Sources/Interrupts.c **** 			(int)(C),(int)D,(int)(basepower),(int)(100*batt1_vol),
 1694              		.loc 1 162 0
 1695 0e50 40F20003 		movw	r3, #:lower16:batt1_vol
 1696 0e54 C0F20003 		movt	r3, #:upper16:batt1_vol
 1697 0e58 1B68     		ldr	r3, [r3, #0]	@ float
 1698 0e5a 1846     		mov	r0, r3
 1699 0e5c 4FF00001 		mov	r1, #0
 1700 0e60 C4F2C821 		movt	r1, 17096
 1701 0e64 FFF7FEFF 		bl	__aeabi_fmul
 1702 0e68 0346     		mov	r3, r0
 161:../Sources/Interrupts.c **** 	write_dT(data,12,(int)No,(int)(100*COMPLEMENTARY_XANGLE),(int)(100*COMPLEMENTARY_YANGLE),(int)(A),
 1703              		.loc 1 161 0
 1704 0e6a 1846     		mov	r0, r3
 1705 0e6c FFF7FEFF 		bl	__aeabi_f2iz
 1706 0e70 0646     		mov	r6, r0
 163:../Sources/Interrupts.c **** 			(int)(100*batt2_vol),(int)(abs(ticker)),0/*elapsed_s*/);//,(int)RTC_TSR);	//963	
 1707              		.loc 1 163 0
 1708 0e72 40F20003 		movw	r3, #:lower16:batt2_vol
 1709 0e76 C0F20003 		movt	r3, #:upper16:batt2_vol
 1710 0e7a 1B68     		ldr	r3, [r3, #0]	@ float
 1711 0e7c 1846     		mov	r0, r3
 1712 0e7e 4FF00001 		mov	r1, #0
 1713 0e82 C4F2C821 		movt	r1, 17096
 1714 0e86 FFF7FEFF 		bl	__aeabi_fmul
 1715 0e8a 0346     		mov	r3, r0
 161:../Sources/Interrupts.c **** 	write_dT(data,12,(int)No,(int)(100*COMPLEMENTARY_XANGLE),(int)(100*COMPLEMENTARY_YANGLE),(int)(A),
 1716              		.loc 1 161 0
 1717 0e8c 1846     		mov	r0, r3
 1718 0e8e FFF7FEFF 		bl	__aeabi_f2iz
 1719 0e92 0146     		mov	r1, r0
 1720              		.loc 1 163 0
 1721 0e94 4FF4E043 		mov	r3, #28672
 1722 0e98 C4F20303 		movt	r3, 16387
 1723 0e9c D3F80421 		ldr	r2, [r3, #260]
 1724 0ea0 48F21F53 		movw	r3, #34079
 1725 0ea4 C5F2EB13 		movt	r3, 20971
 1726 0ea8 A3FB0203 		umull	r0, r3, r3, r2
 1727 0eac 4FEA5313 		lsr	r3, r3, #5
 161:../Sources/Interrupts.c **** 	write_dT(data,12,(int)No,(int)(100*COMPLEMENTARY_XANGLE),(int)(100*COMPLEMENTARY_YANGLE),(int)(A),
 1728              		.loc 1 161 0
 1729 0eb0 83EAE372 		eor	r2, r3, r3, asr #31
 1730 0eb4 A2EBE372 		sub	r2, r2, r3, asr #31
 1731 0eb8 07F10C03 		add	r3, r7, #12
 1732 0ebc 7868     		ldr	r0, [r7, #4]
 1733 0ebe 0090     		str	r0, [sp, #0]
 1734 0ec0 3868     		ldr	r0, [r7, #0]
 1735 0ec2 0190     		str	r0, [sp, #4]
 1736 0ec4 CDF808B0 		str	fp, [sp, #8]
 1737 0ec8 CDF80CA0 		str	sl, [sp, #12]
 1738 0ecc CDF81090 		str	r9, [sp, #16]
 1739 0ed0 CDF81480 		str	r8, [sp, #20]
 1740 0ed4 0696     		str	r6, [sp, #24]
 1741 0ed6 0791     		str	r1, [sp, #28]
 1742 0ed8 0892     		str	r2, [sp, #32]
 1743 0eda 4FF00002 		mov	r2, #0
 1744 0ede 0992     		str	r2, [sp, #36]
 1745 0ee0 1846     		mov	r0, r3
 1746 0ee2 4FF00C01 		mov	r1, #12
 1747 0ee6 2A46     		mov	r2, r5
 1748 0ee8 2346     		mov	r3, r4
 1749 0eea FFF7FEFF 		bl	write_dT
 164:../Sources/Interrupts.c **** 	tt[7]=ttt-ticker;
 1750              		.loc 1 164 0
 1751 0eee 7A6D     		ldr	r2, [r7, #84]
 1752 0ef0 4FF4E043 		mov	r3, #28672
 1753 0ef4 C4F20303 		movt	r3, 16387
 1754 0ef8 D3F80411 		ldr	r1, [r3, #260]
 1755 0efc 48F21F53 		movw	r3, #34079
 1756 0f00 C5F2EB13 		movt	r3, 20971
 1757 0f04 A3FB0103 		umull	r0, r3, r3, r1
 1758 0f08 4FEA5313 		lsr	r3, r3, #5
 1759 0f0c D31A     		subs	r3, r2, r3
 1760 0f0e 1A46     		mov	r2, r3
 1761 0f10 40F20003 		movw	r3, #:lower16:tt
 1762 0f14 C0F20003 		movt	r3, #:upper16:tt
 1763 0f18 DA61     		str	r2, [r3, #28]
 165:../Sources/Interrupts.c **** 	ttt=ticker;
 1764              		.loc 1 165 0
 1765 0f1a 4FF4E043 		mov	r3, #28672
 1766 0f1e C4F20303 		movt	r3, 16387
 1767 0f22 D3F80421 		ldr	r2, [r3, #260]
 1768 0f26 48F21F53 		movw	r3, #34079
 1769 0f2a C5F2EB13 		movt	r3, 20971
 1770 0f2e A3FB0213 		umull	r1, r3, r3, r2
 1771 0f32 4FEA5313 		lsr	r3, r3, #5
 1772 0f36 7B65     		str	r3, [r7, #84]
 166:../Sources/Interrupts.c **** 	f_write(&fil,data,71,&x);	//168	itt valami tortenik, mert minden 7. lefutasnal 165 helyett 7566ig 
 1773              		.loc 1 166 0
 1774 0f38 07F10C02 		add	r2, r7, #12
 1775 0f3c 07F10803 		add	r3, r7, #8
 1776 0f40 40F20000 		movw	r0, #:lower16:fil
 1777 0f44 C0F20000 		movt	r0, #:upper16:fil
 1778 0f48 1146     		mov	r1, r2
 1779 0f4a 4FF04702 		mov	r2, #71
 1780 0f4e FFF7FEFF 		bl	f_write
 167:../Sources/Interrupts.c **** 	f_write(&fil,"\r\n",2,&x);	//27
 1781              		.loc 1 167 0
 1782 0f52 07F10803 		add	r3, r7, #8
 1783 0f56 40F20000 		movw	r0, #:lower16:fil
 1784 0f5a C0F20000 		movt	r0, #:upper16:fil
 1785 0f5e 40F20001 		movw	r1, #:lower16:.LC0
 1786 0f62 C0F20001 		movt	r1, #:upper16:.LC0
 1787 0f66 4FF00202 		mov	r2, #2
 1788 0f6a FFF7FEFF 		bl	f_write
 168:../Sources/Interrupts.c **** 	tt[8]=ttt-ticker;
 1789              		.loc 1 168 0
 1790 0f6e 7A6D     		ldr	r2, [r7, #84]
 1791 0f70 4FF4E043 		mov	r3, #28672
 1792 0f74 C4F20303 		movt	r3, 16387
 1793 0f78 D3F80411 		ldr	r1, [r3, #260]
 1794 0f7c 48F21F53 		movw	r3, #34079
 1795 0f80 C5F2EB13 		movt	r3, 20971
 1796 0f84 A3FB0103 		umull	r0, r3, r3, r1
 1797 0f88 4FEA5313 		lsr	r3, r3, #5
 1798 0f8c D31A     		subs	r3, r2, r3
 1799 0f8e 1A46     		mov	r2, r3
 1800 0f90 40F20003 		movw	r3, #:lower16:tt
 1801 0f94 C0F20003 		movt	r3, #:upper16:tt
 1802 0f98 1A62     		str	r2, [r3, #32]
 169:../Sources/Interrupts.c **** 	if(No%250==0)
 1803              		.loc 1 169 0
 1804 0f9a 40F20003 		movw	r3, #:lower16:No
 1805 0f9e C0F20003 		movt	r3, #:upper16:No
 1806 0fa2 1A68     		ldr	r2, [r3, #0]
 1807 0fa4 44F6D353 		movw	r3, #19923
 1808 0fa8 C1F26203 		movt	r3, 4194
 1809 0fac 83FB0213 		smull	r1, r3, r3, r2
 1810 0fb0 4FEA2311 		asr	r1, r3, #4
 1811 0fb4 4FEAE273 		asr	r3, r2, #31
 1812 0fb8 CB1A     		subs	r3, r1, r3
 1813 0fba 4FF0FA01 		mov	r1, #250
 1814 0fbe 01FB03F3 		mul	r3, r1, r3
 1815 0fc2 D31A     		subs	r3, r2, r3
 1816 0fc4 002B     		cmp	r3, #0
 1817 0fc6 05D1     		bne	.L45
 170:../Sources/Interrupts.c **** 		{
 171:../Sources/Interrupts.c **** 		f_sync(&fil);			//sync data with SD card	Vigyázz KL25nel mert megszakitas koyben nem mukodik a De
 1818              		.loc 1 171 0
 1819 0fc8 40F20000 		movw	r0, #:lower16:fil
 1820 0fcc C0F20000 		movt	r0, #:upper16:fil
 1821 0fd0 FFF7FEFF 		bl	f_sync
 1822              	.L45:
 172:../Sources/Interrupts.c **** 		}
 173:../Sources/Interrupts.c **** 	
 174:../Sources/Interrupts.c **** }
 1823              		.loc 1 174 0
 1824 0fd4 07F15C07 		add	r7, r7, #92
 1825 0fd8 BD46     		mov	sp, r7
 1826 0fda BDE8F08F 		pop	{r4, r5, r6, r7, r8, r9, sl, fp, pc}
 1827              		.cfi_endproc
 1828              	.LFE5:
 1830              		.global	__aeabi_f2uiz
 1831              		.global	__aeabi_f2d
 1832              		.global	__aeabi_dadd
 1833              		.global	__aeabi_d2f
 1834              		.global	__aeabi_dsub
 1835 0fde 00BF     		.align	2
 1836              		.global	bluetooth_getchar
 1837              		.thumb
 1838              		.thumb_func
 1840              	bluetooth_getchar:
 1841              	.LFB6:
 175:../Sources/Interrupts.c **** 
 176:../Sources/Interrupts.c **** void bluetooth_getchar()
 177:../Sources/Interrupts.c **** {
 1842              		.loc 1 177 0
 1843              		.cfi_startproc
 1844              		@ args = 0, pretend = 0, frame = 8
 1845              		@ frame_needed = 1, uses_anonymous_args = 0
 1846 0fe0 80B5     		push	{r7, lr}
 1847              	.LCFI16:
 1848              		.cfi_def_cfa_offset 8
 1849              		.cfi_offset 7, -8
 1850              		.cfi_offset 14, -4
 1851 0fe2 82B0     		sub	sp, sp, #8
 1852              	.LCFI17:
 1853              		.cfi_def_cfa_offset 16
 1854 0fe4 00AF     		add	r7, sp, #0
 1855              	.LCFI18:
 1856              		.cfi_def_cfa_register 7
 178:../Sources/Interrupts.c **** 	char c;
 179:../Sources/Interrupts.c **** 	c=uart_getchar(UART0_BASE_PTR);
 1857              		.loc 1 179 0
 1858 0fe6 4FF42040 		mov	r0, #40960
 1859 0fea C4F20600 		movt	r0, 16390
 1860 0fee FFF7FEFF 		bl	uart_getchar
 1861 0ff2 0346     		mov	r3, r0
 1862 0ff4 BB71     		strb	r3, [r7, #6]
 180:../Sources/Interrupts.c **** 	
 181:../Sources/Interrupts.c **** 	if(c=='d')				{setpoint_x+=3;setpoint_y+=3;	flag_kyb=No;}	//forward
 1863              		.loc 1 181 0
 1864 0ff6 BB79     		ldrb	r3, [r7, #6]	@ zero_extendqisi2
 1865 0ff8 642B     		cmp	r3, #100
 1866 0ffa 21D1     		bne	.L48
 1867              		.loc 1 181 0 is_stmt 0 discriminator 1
 1868 0ffc 40F20003 		movw	r3, #:lower16:setpoint_x
 1869 1000 C0F20003 		movt	r3, #:upper16:setpoint_x
 1870 1004 1B68     		ldr	r3, [r3, #0]
 1871 1006 03F10302 		add	r2, r3, #3
 1872 100a 40F20003 		movw	r3, #:lower16:setpoint_x
 1873 100e C0F20003 		movt	r3, #:upper16:setpoint_x
 1874 1012 1A60     		str	r2, [r3, #0]
 1875 1014 40F20003 		movw	r3, #:lower16:setpoint_y
 1876 1018 C0F20003 		movt	r3, #:upper16:setpoint_y
 1877 101c 1B68     		ldr	r3, [r3, #0]
 1878 101e 03F10302 		add	r2, r3, #3
 1879 1022 40F20003 		movw	r3, #:lower16:setpoint_y
 1880 1026 C0F20003 		movt	r3, #:upper16:setpoint_y
 1881 102a 1A60     		str	r2, [r3, #0]
 1882 102c 40F20003 		movw	r3, #:lower16:No
 1883 1030 C0F20003 		movt	r3, #:upper16:No
 1884 1034 1A68     		ldr	r2, [r3, #0]
 1885 1036 40F20003 		movw	r3, #:lower16:flag_kyb
 1886 103a C0F20003 		movt	r3, #:upper16:flag_kyb
 1887 103e 1A60     		str	r2, [r3, #0]
 1888              	.L48:
 182:../Sources/Interrupts.c **** 	if(c=='a')				{setpoint_x-=3;setpoint_y-=3;	flag_kyb=No;}	//back
 1889              		.loc 1 182 0 is_stmt 1
 1890 1040 BB79     		ldrb	r3, [r7, #6]	@ zero_extendqisi2
 1891 1042 612B     		cmp	r3, #97
 1892 1044 21D1     		bne	.L49
 1893              		.loc 1 182 0 is_stmt 0 discriminator 1
 1894 1046 40F20003 		movw	r3, #:lower16:setpoint_x
 1895 104a C0F20003 		movt	r3, #:upper16:setpoint_x
 1896 104e 1B68     		ldr	r3, [r3, #0]
 1897 1050 A3F10302 		sub	r2, r3, #3
 1898 1054 40F20003 		movw	r3, #:lower16:setpoint_x
 1899 1058 C0F20003 		movt	r3, #:upper16:setpoint_x
 1900 105c 1A60     		str	r2, [r3, #0]
 1901 105e 40F20003 		movw	r3, #:lower16:setpoint_y
 1902 1062 C0F20003 		movt	r3, #:upper16:setpoint_y
 1903 1066 1B68     		ldr	r3, [r3, #0]
 1904 1068 A3F10302 		sub	r2, r3, #3
 1905 106c 40F20003 		movw	r3, #:lower16:setpoint_y
 1906 1070 C0F20003 		movt	r3, #:upper16:setpoint_y
 1907 1074 1A60     		str	r2, [r3, #0]
 1908 1076 40F20003 		movw	r3, #:lower16:No
 1909 107a C0F20003 		movt	r3, #:upper16:No
 1910 107e 1A68     		ldr	r2, [r3, #0]
 1911 1080 40F20003 		movw	r3, #:lower16:flag_kyb
 1912 1084 C0F20003 		movt	r3, #:upper16:flag_kyb
 1913 1088 1A60     		str	r2, [r3, #0]
 1914              	.L49:
 183:../Sources/Interrupts.c **** 	if(c=='w')				{setpoint_x+=3;setpoint_y-=3;	flag_kyb=No;}	//right
 1915              		.loc 1 183 0 is_stmt 1
 1916 108a BB79     		ldrb	r3, [r7, #6]	@ zero_extendqisi2
 1917 108c 772B     		cmp	r3, #119
 1918 108e 21D1     		bne	.L50
 1919              		.loc 1 183 0 is_stmt 0 discriminator 1
 1920 1090 40F20003 		movw	r3, #:lower16:setpoint_x
 1921 1094 C0F20003 		movt	r3, #:upper16:setpoint_x
 1922 1098 1B68     		ldr	r3, [r3, #0]
 1923 109a 03F10302 		add	r2, r3, #3
 1924 109e 40F20003 		movw	r3, #:lower16:setpoint_x
 1925 10a2 C0F20003 		movt	r3, #:upper16:setpoint_x
 1926 10a6 1A60     		str	r2, [r3, #0]
 1927 10a8 40F20003 		movw	r3, #:lower16:setpoint_y
 1928 10ac C0F20003 		movt	r3, #:upper16:setpoint_y
 1929 10b0 1B68     		ldr	r3, [r3, #0]
 1930 10b2 A3F10302 		sub	r2, r3, #3
 1931 10b6 40F20003 		movw	r3, #:lower16:setpoint_y
 1932 10ba C0F20003 		movt	r3, #:upper16:setpoint_y
 1933 10be 1A60     		str	r2, [r3, #0]
 1934 10c0 40F20003 		movw	r3, #:lower16:No
 1935 10c4 C0F20003 		movt	r3, #:upper16:No
 1936 10c8 1A68     		ldr	r2, [r3, #0]
 1937 10ca 40F20003 		movw	r3, #:lower16:flag_kyb
 1938 10ce C0F20003 		movt	r3, #:upper16:flag_kyb
 1939 10d2 1A60     		str	r2, [r3, #0]
 1940              	.L50:
 184:../Sources/Interrupts.c **** 	if(c=='s')				{setpoint_x-=3;setpoint_y+=3;	flag_kyb=No;}	//left
 1941              		.loc 1 184 0 is_stmt 1
 1942 10d4 BB79     		ldrb	r3, [r7, #6]	@ zero_extendqisi2
 1943 10d6 732B     		cmp	r3, #115
 1944 10d8 21D1     		bne	.L51
 1945              		.loc 1 184 0 is_stmt 0 discriminator 1
 1946 10da 40F20003 		movw	r3, #:lower16:setpoint_x
 1947 10de C0F20003 		movt	r3, #:upper16:setpoint_x
 1948 10e2 1B68     		ldr	r3, [r3, #0]
 1949 10e4 A3F10302 		sub	r2, r3, #3
 1950 10e8 40F20003 		movw	r3, #:lower16:setpoint_x
 1951 10ec C0F20003 		movt	r3, #:upper16:setpoint_x
 1952 10f0 1A60     		str	r2, [r3, #0]
 1953 10f2 40F20003 		movw	r3, #:lower16:setpoint_y
 1954 10f6 C0F20003 		movt	r3, #:upper16:setpoint_y
 1955 10fa 1B68     		ldr	r3, [r3, #0]
 1956 10fc 03F10302 		add	r2, r3, #3
 1957 1100 40F20003 		movw	r3, #:lower16:setpoint_y
 1958 1104 C0F20003 		movt	r3, #:upper16:setpoint_y
 1959 1108 1A60     		str	r2, [r3, #0]
 1960 110a 40F20003 		movw	r3, #:lower16:No
 1961 110e C0F20003 		movt	r3, #:upper16:No
 1962 1112 1A68     		ldr	r2, [r3, #0]
 1963 1114 40F20003 		movw	r3, #:lower16:flag_kyb
 1964 1118 C0F20003 		movt	r3, #:upper16:flag_kyb
 1965 111c 1A60     		str	r2, [r3, #0]
 1966              	.L51:
 185:../Sources/Interrupts.c **** 	if(c==',')				setpoint_z-=4;		
 1967              		.loc 1 185 0 is_stmt 1
 1968 111e BB79     		ldrb	r3, [r7, #6]	@ zero_extendqisi2
 1969 1120 2C2B     		cmp	r3, #44
 1970 1122 0BD1     		bne	.L52
 1971              		.loc 1 185 0 is_stmt 0 discriminator 1
 1972 1124 40F20003 		movw	r3, #:lower16:setpoint_z
 1973 1128 C0F20003 		movt	r3, #:upper16:setpoint_z
 1974 112c 1B68     		ldr	r3, [r3, #0]
 1975 112e A3F10402 		sub	r2, r3, #4
 1976 1132 40F20003 		movw	r3, #:lower16:setpoint_z
 1977 1136 C0F20003 		movt	r3, #:upper16:setpoint_z
 1978 113a 1A60     		str	r2, [r3, #0]
 1979              	.L52:
 186:../Sources/Interrupts.c **** 	if(c=='.')				setpoint_z+=4;
 1980              		.loc 1 186 0 is_stmt 1
 1981 113c BB79     		ldrb	r3, [r7, #6]	@ zero_extendqisi2
 1982 113e 2E2B     		cmp	r3, #46
 1983 1140 0BD1     		bne	.L53
 1984              		.loc 1 186 0 is_stmt 0 discriminator 1
 1985 1142 40F20003 		movw	r3, #:lower16:setpoint_z
 1986 1146 C0F20003 		movt	r3, #:upper16:setpoint_z
 1987 114a 1B68     		ldr	r3, [r3, #0]
 1988 114c 03F10402 		add	r2, r3, #4
 1989 1150 40F20003 		movw	r3, #:lower16:setpoint_z
 1990 1154 C0F20003 		movt	r3, #:upper16:setpoint_z
 1991 1158 1A60     		str	r2, [r3, #0]
 1992              	.L53:
 187:../Sources/Interrupts.c **** 	if(c=='+')				basepower+=2;
 1993              		.loc 1 187 0 is_stmt 1
 1994 115a BB79     		ldrb	r3, [r7, #6]	@ zero_extendqisi2
 1995 115c 2B2B     		cmp	r3, #43
 1996 115e 0BD1     		bne	.L54
 1997              		.loc 1 187 0 is_stmt 0 discriminator 1
 1998 1160 40F20003 		movw	r3, #:lower16:basepower
 1999 1164 C0F20003 		movt	r3, #:upper16:basepower
 2000 1168 1B68     		ldr	r3, [r3, #0]
 2001 116a 03F10202 		add	r2, r3, #2
 2002 116e 40F20003 		movw	r3, #:lower16:basepower
 2003 1172 C0F20003 		movt	r3, #:upper16:basepower
 2004 1176 1A60     		str	r2, [r3, #0]
 2005              	.L54:
 188:../Sources/Interrupts.c **** 	if(c=='-')				basepower-=2;
 2006              		.loc 1 188 0 is_stmt 1
 2007 1178 BB79     		ldrb	r3, [r7, #6]	@ zero_extendqisi2
 2008 117a 2D2B     		cmp	r3, #45
 2009 117c 0BD1     		bne	.L55
 2010              		.loc 1 188 0 is_stmt 0 discriminator 1
 2011 117e 40F20003 		movw	r3, #:lower16:basepower
 2012 1182 C0F20003 		movt	r3, #:upper16:basepower
 2013 1186 1B68     		ldr	r3, [r3, #0]
 2014 1188 A3F10202 		sub	r2, r3, #2
 2015 118c 40F20003 		movw	r3, #:lower16:basepower
 2016 1190 C0F20003 		movt	r3, #:upper16:basepower
 2017 1194 1A60     		str	r2, [r3, #0]
 2018              	.L55:
 189:../Sources/Interrupts.c **** 	if(c=='9')				basepower+=10;
 2019              		.loc 1 189 0 is_stmt 1
 2020 1196 BB79     		ldrb	r3, [r7, #6]	@ zero_extendqisi2
 2021 1198 392B     		cmp	r3, #57
 2022 119a 0BD1     		bne	.L56
 2023              		.loc 1 189 0 is_stmt 0 discriminator 1
 2024 119c 40F20003 		movw	r3, #:lower16:basepower
 2025 11a0 C0F20003 		movt	r3, #:upper16:basepower
 2026 11a4 1B68     		ldr	r3, [r3, #0]
 2027 11a6 03F10A02 		add	r2, r3, #10
 2028 11aa 40F20003 		movw	r3, #:lower16:basepower
 2029 11ae C0F20003 		movt	r3, #:upper16:basepower
 2030 11b2 1A60     		str	r2, [r3, #0]
 2031              	.L56:
 190:../Sources/Interrupts.c **** 	if(c=='6')				basepower-=10;
 2032              		.loc 1 190 0 is_stmt 1
 2033 11b4 BB79     		ldrb	r3, [r7, #6]	@ zero_extendqisi2
 2034 11b6 362B     		cmp	r3, #54
 2035 11b8 0BD1     		bne	.L57
 2036              		.loc 1 190 0 is_stmt 0 discriminator 1
 2037 11ba 40F20003 		movw	r3, #:lower16:basepower
 2038 11be C0F20003 		movt	r3, #:upper16:basepower
 2039 11c2 1B68     		ldr	r3, [r3, #0]
 2040 11c4 A3F10A02 		sub	r2, r3, #10
 2041 11c8 40F20003 		movw	r3, #:lower16:basepower
 2042 11cc C0F20003 		movt	r3, #:upper16:basepower
 2043 11d0 1A60     		str	r2, [r3, #0]
 2044              	.L57:
 191:../Sources/Interrupts.c **** //	if(c=='w')				{setpoint_alt+=0.5;	uart_putchar(UART1_BASE_PTR,(char)(setpoint_alt));}
 192:../Sources/Interrupts.c **** //	if(c=='s')				{setpoint_alt-=0.5;	uart_putchar(UART1_BASE_PTR,(char)(setpoint_alt));}
 193:../Sources/Interrupts.c **** 	if(c=='c')				{setpoint_x=0;setpoint_y=0;setpoint_z=0;setpoint_alt=1;}
 2045              		.loc 1 193 0 is_stmt 1
 2046 11d2 BB79     		ldrb	r3, [r7, #6]	@ zero_extendqisi2
 2047 11d4 632B     		cmp	r3, #99
 2048 11d6 1BD1     		bne	.L58
 2049              		.loc 1 193 0 is_stmt 0 discriminator 1
 2050 11d8 40F20003 		movw	r3, #:lower16:setpoint_x
 2051 11dc C0F20003 		movt	r3, #:upper16:setpoint_x
 2052 11e0 4FF00002 		mov	r2, #0
 2053 11e4 1A60     		str	r2, [r3, #0]
 2054 11e6 40F20003 		movw	r3, #:lower16:setpoint_y
 2055 11ea C0F20003 		movt	r3, #:upper16:setpoint_y
 2056 11ee 4FF00002 		mov	r2, #0
 2057 11f2 1A60     		str	r2, [r3, #0]
 2058 11f4 40F20003 		movw	r3, #:lower16:setpoint_z
 2059 11f8 C0F20003 		movt	r3, #:upper16:setpoint_z
 2060 11fc 4FF00002 		mov	r2, #0
 2061 1200 1A60     		str	r2, [r3, #0]
 2062 1202 40F20003 		movw	r3, #:lower16:setpoint_alt
 2063 1206 C0F20003 		movt	r3, #:upper16:setpoint_alt
 2064 120a 4FF07E52 		mov	r2, #1065353216
 2065 120e 1A60     		str	r2, [r3, #0]	@ float
 2066              	.L58:
 194:../Sources/Interrupts.c **** 	if(c=='0')				flag_landing=1;
 2067              		.loc 1 194 0 is_stmt 1
 2068 1210 BB79     		ldrb	r3, [r7, #6]	@ zero_extendqisi2
 2069 1212 302B     		cmp	r3, #48
 2070 1214 06D1     		bne	.L59
 2071              		.loc 1 194 0 is_stmt 0 discriminator 1
 2072 1216 40F20003 		movw	r3, #:lower16:flag_landing
 2073 121a C0F20003 		movt	r3, #:upper16:flag_landing
 2074 121e 4FF00102 		mov	r2, #1
 2075 1222 1A70     		strb	r2, [r3, #0]
 2076              	.L59:
 195:../Sources/Interrupts.c **** 	if(c=='1' || c=='x')				{SetMotorPWM(0,0,0,0); disable_irq(INT_PIT0 - 16);}	//turn off 
 2077              		.loc 1 195 0 is_stmt 1
 2078 1224 BB79     		ldrb	r3, [r7, #6]	@ zero_extendqisi2
 2079 1226 312B     		cmp	r3, #49
 2080 1228 02D0     		beq	.L60
 2081              		.loc 1 195 0 is_stmt 0 discriminator 2
 2082 122a BB79     		ldrb	r3, [r7, #6]	@ zero_extendqisi2
 2083 122c 782B     		cmp	r3, #120
 2084 122e 0DD1     		bne	.L61
 2085              	.L60:
 2086              		.loc 1 195 0 discriminator 1
 2087 1230 4FF00000 		mov	r0, #0
 2088 1234 4FF00001 		mov	r1, #0
 2089 1238 4FF00002 		mov	r2, #0
 2090 123c 4FF00003 		mov	r3, #0
 2091 1240 FFF7FEFF 		bl	SetMotorPWM
 2092 1244 4FF04400 		mov	r0, #68
 2093 1248 FFF7FEFF 		bl	disable_irq
 2094              	.L61:
 196:../Sources/Interrupts.c **** #if PID_tuning	
 197:../Sources/Interrupts.c **** 	char dataout;
 198:../Sources/Interrupts.c **** 	if(c=='r')				{Kp+=0.5;				dataout=(char)(Kp);}	
 2095              		.loc 1 198 0 is_stmt 1
 2096 124c BB79     		ldrb	r3, [r7, #6]	@ zero_extendqisi2
 2097 124e 722B     		cmp	r3, #114
 2098 1250 1AD1     		bne	.L62
 2099              		.loc 1 198 0 is_stmt 0 discriminator 1
 2100 1252 40F20003 		movw	r3, #:lower16:Kp
 2101 1256 C0F20003 		movt	r3, #:upper16:Kp
 2102 125a 1B68     		ldr	r3, [r3, #0]	@ float
 2103 125c 1846     		mov	r0, r3
 2104 125e 4FF07C51 		mov	r1, #1056964608
 2105 1262 FFF7FEFF 		bl	__aeabi_fadd
 2106 1266 0346     		mov	r3, r0
 2107 1268 1A46     		mov	r2, r3
 2108 126a 40F20003 		movw	r3, #:lower16:Kp
 2109 126e C0F20003 		movt	r3, #:upper16:Kp
 2110 1272 1A60     		str	r2, [r3, #0]	@ float
 2111 1274 40F20003 		movw	r3, #:lower16:Kp
 2112 1278 C0F20003 		movt	r3, #:upper16:Kp
 2113 127c 1B68     		ldr	r3, [r3, #0]	@ float
 2114 127e 1846     		mov	r0, r3
 2115 1280 FFF7FEFF 		bl	__aeabi_f2uiz
 2116 1284 0346     		mov	r3, r0
 2117 1286 FB71     		strb	r3, [r7, #7]
 2118              	.L62:
 199:../Sources/Interrupts.c **** 	if(c=='f')				{Kp-=0.5;				dataout=(char)(Kp);}
 2119              		.loc 1 199 0 is_stmt 1
 2120 1288 BB79     		ldrb	r3, [r7, #6]	@ zero_extendqisi2
 2121 128a 662B     		cmp	r3, #102
 2122 128c 1AD1     		bne	.L63
 2123              		.loc 1 199 0 is_stmt 0 discriminator 1
 2124 128e 40F20003 		movw	r3, #:lower16:Kp
 2125 1292 C0F20003 		movt	r3, #:upper16:Kp
 2126 1296 1B68     		ldr	r3, [r3, #0]	@ float
 2127 1298 1846     		mov	r0, r3
 2128 129a 4FF07C51 		mov	r1, #1056964608
 2129 129e FFF7FEFF 		bl	__aeabi_fsub
 2130 12a2 0346     		mov	r3, r0
 2131 12a4 1A46     		mov	r2, r3
 2132 12a6 40F20003 		movw	r3, #:lower16:Kp
 2133 12aa C0F20003 		movt	r3, #:upper16:Kp
 2134 12ae 1A60     		str	r2, [r3, #0]	@ float
 2135 12b0 40F20003 		movw	r3, #:lower16:Kp
 2136 12b4 C0F20003 		movt	r3, #:upper16:Kp
 2137 12b8 1B68     		ldr	r3, [r3, #0]	@ float
 2138 12ba 1846     		mov	r0, r3
 2139 12bc FFF7FEFF 		bl	__aeabi_f2uiz
 2140 12c0 0346     		mov	r3, r0
 2141 12c2 FB71     		strb	r3, [r7, #7]
 2142              	.L63:
 200:../Sources/Interrupts.c **** 	if(c=='t')				{Kd+=0.05;				dataout=(char)(Kd);}
 2143              		.loc 1 200 0 is_stmt 1
 2144 12c4 BB79     		ldrb	r3, [r7, #6]	@ zero_extendqisi2
 2145 12c6 742B     		cmp	r3, #116
 2146 12c8 26D1     		bne	.L64
 2147              		.loc 1 200 0 is_stmt 0 discriminator 1
 2148 12ca 40F20003 		movw	r3, #:lower16:Kd
 2149 12ce C0F20003 		movt	r3, #:upper16:Kd
 2150 12d2 1B68     		ldr	r3, [r3, #0]	@ float
 2151 12d4 1846     		mov	r0, r3
 2152 12d6 FFF7FEFF 		bl	__aeabi_f2d
 2153 12da 0246     		mov	r2, r0
 2154 12dc 0B46     		mov	r3, r1
 2155 12de 1046     		mov	r0, r2
 2156 12e0 1946     		mov	r1, r3
 2157 12e2 AFA3     		adr	r3, .L81
 2158 12e4 D3E90023 		ldrd	r2, [r3]
 2159 12e8 FFF7FEFF 		bl	__aeabi_dadd
 2160 12ec 0246     		mov	r2, r0
 2161 12ee 0B46     		mov	r3, r1
 2162 12f0 1046     		mov	r0, r2
 2163 12f2 1946     		mov	r1, r3
 2164 12f4 FFF7FEFF 		bl	__aeabi_d2f
 2165 12f8 0246     		mov	r2, r0
 2166 12fa 40F20003 		movw	r3, #:lower16:Kd
 2167 12fe C0F20003 		movt	r3, #:upper16:Kd
 2168 1302 1A60     		str	r2, [r3, #0]	@ float
 2169 1304 40F20003 		movw	r3, #:lower16:Kd
 2170 1308 C0F20003 		movt	r3, #:upper16:Kd
 2171 130c 1B68     		ldr	r3, [r3, #0]	@ float
 2172 130e 1846     		mov	r0, r3
 2173 1310 FFF7FEFF 		bl	__aeabi_f2uiz
 2174 1314 0346     		mov	r3, r0
 2175 1316 FB71     		strb	r3, [r7, #7]
 2176              	.L64:
 201:../Sources/Interrupts.c **** 	if(c=='g')				{Kd-=0.05;				dataout=(char)(Kd);}
 2177              		.loc 1 201 0 is_stmt 1
 2178 1318 BB79     		ldrb	r3, [r7, #6]	@ zero_extendqisi2
 2179 131a 672B     		cmp	r3, #103
 2180 131c 26D1     		bne	.L65
 2181              		.loc 1 201 0 is_stmt 0 discriminator 1
 2182 131e 40F20003 		movw	r3, #:lower16:Kd
 2183 1322 C0F20003 		movt	r3, #:upper16:Kd
 2184 1326 1B68     		ldr	r3, [r3, #0]	@ float
 2185 1328 1846     		mov	r0, r3
 2186 132a FFF7FEFF 		bl	__aeabi_f2d
 2187 132e 0246     		mov	r2, r0
 2188 1330 0B46     		mov	r3, r1
 2189 1332 1046     		mov	r0, r2
 2190 1334 1946     		mov	r1, r3
 2191 1336 9AA3     		adr	r3, .L81
 2192 1338 D3E90023 		ldrd	r2, [r3]
 2193 133c FFF7FEFF 		bl	__aeabi_dsub
 2194 1340 0246     		mov	r2, r0
 2195 1342 0B46     		mov	r3, r1
 2196 1344 1046     		mov	r0, r2
 2197 1346 1946     		mov	r1, r3
 2198 1348 FFF7FEFF 		bl	__aeabi_d2f
 2199 134c 0246     		mov	r2, r0
 2200 134e 40F20003 		movw	r3, #:lower16:Kd
 2201 1352 C0F20003 		movt	r3, #:upper16:Kd
 2202 1356 1A60     		str	r2, [r3, #0]	@ float
 2203 1358 40F20003 		movw	r3, #:lower16:Kd
 2204 135c C0F20003 		movt	r3, #:upper16:Kd
 2205 1360 1B68     		ldr	r3, [r3, #0]	@ float
 2206 1362 1846     		mov	r0, r3
 2207 1364 FFF7FEFF 		bl	__aeabi_f2uiz
 2208 1368 0346     		mov	r3, r0
 2209 136a FB71     		strb	r3, [r7, #7]
 2210              	.L65:
 202:../Sources/Interrupts.c **** 	if(c=='y')				{Ki+=1;					dataout=(char)(Ki);}
 2211              		.loc 1 202 0 is_stmt 1
 2212 136c BB79     		ldrb	r3, [r7, #6]	@ zero_extendqisi2
 2213 136e 792B     		cmp	r3, #121
 2214 1370 1AD1     		bne	.L66
 2215              		.loc 1 202 0 is_stmt 0 discriminator 1
 2216 1372 40F20003 		movw	r3, #:lower16:Ki
 2217 1376 C0F20003 		movt	r3, #:upper16:Ki
 2218 137a 1B68     		ldr	r3, [r3, #0]	@ float
 2219 137c 1846     		mov	r0, r3
 2220 137e 4FF07E51 		mov	r1, #1065353216
 2221 1382 FFF7FEFF 		bl	__aeabi_fadd
 2222 1386 0346     		mov	r3, r0
 2223 1388 1A46     		mov	r2, r3
 2224 138a 40F20003 		movw	r3, #:lower16:Ki
 2225 138e C0F20003 		movt	r3, #:upper16:Ki
 2226 1392 1A60     		str	r2, [r3, #0]	@ float
 2227 1394 40F20003 		movw	r3, #:lower16:Ki
 2228 1398 C0F20003 		movt	r3, #:upper16:Ki
 2229 139c 1B68     		ldr	r3, [r3, #0]	@ float
 2230 139e 1846     		mov	r0, r3
 2231 13a0 FFF7FEFF 		bl	__aeabi_f2uiz
 2232 13a4 0346     		mov	r3, r0
 2233 13a6 FB71     		strb	r3, [r7, #7]
 2234              	.L66:
 203:../Sources/Interrupts.c **** 	if(c=='h')				{Ki-=1;					dataout=(char)(Ki);}
 2235              		.loc 1 203 0 is_stmt 1
 2236 13a8 BB79     		ldrb	r3, [r7, #6]	@ zero_extendqisi2
 2237 13aa 682B     		cmp	r3, #104
 2238 13ac 1AD1     		bne	.L67
 2239              		.loc 1 203 0 is_stmt 0 discriminator 1
 2240 13ae 40F20003 		movw	r3, #:lower16:Ki
 2241 13b2 C0F20003 		movt	r3, #:upper16:Ki
 2242 13b6 1B68     		ldr	r3, [r3, #0]	@ float
 2243 13b8 1846     		mov	r0, r3
 2244 13ba 4FF07E51 		mov	r1, #1065353216
 2245 13be FFF7FEFF 		bl	__aeabi_fsub
 2246 13c2 0346     		mov	r3, r0
 2247 13c4 1A46     		mov	r2, r3
 2248 13c6 40F20003 		movw	r3, #:lower16:Ki
 2249 13ca C0F20003 		movt	r3, #:upper16:Ki
 2250 13ce 1A60     		str	r2, [r3, #0]	@ float
 2251 13d0 40F20003 		movw	r3, #:lower16:Ki
 2252 13d4 C0F20003 		movt	r3, #:upper16:Ki
 2253 13d8 1B68     		ldr	r3, [r3, #0]	@ float
 2254 13da 1846     		mov	r0, r3
 2255 13dc FFF7FEFF 		bl	__aeabi_f2uiz
 2256 13e0 0346     		mov	r3, r0
 2257 13e2 FB71     		strb	r3, [r7, #7]
 2258              	.L67:
 204:../Sources/Interrupts.c **** 	if(c=='u')				{timeConstant+=0.1;	dataout=(char)10*timeConstant;}
 2259              		.loc 1 204 0 is_stmt 1
 2260 13e4 BB79     		ldrb	r3, [r7, #6]	@ zero_extendqisi2
 2261 13e6 752B     		cmp	r3, #117
 2262 13e8 2ED1     		bne	.L68
 2263              		.loc 1 204 0 is_stmt 0 discriminator 1
 2264 13ea 40F20003 		movw	r3, #:lower16:timeConstant
 2265 13ee C0F20003 		movt	r3, #:upper16:timeConstant
 2266 13f2 1B68     		ldr	r3, [r3, #0]	@ float
 2267 13f4 1846     		mov	r0, r3
 2268 13f6 FFF7FEFF 		bl	__aeabi_f2d
 2269 13fa 0246     		mov	r2, r0
 2270 13fc 0B46     		mov	r3, r1
 2271 13fe 1046     		mov	r0, r2
 2272 1400 1946     		mov	r1, r3
 2273 1402 69A3     		adr	r3, .L81+8
 2274 1404 D3E90023 		ldrd	r2, [r3]
 2275 1408 FFF7FEFF 		bl	__aeabi_dadd
 2276 140c 0246     		mov	r2, r0
 2277 140e 0B46     		mov	r3, r1
 2278 1410 1046     		mov	r0, r2
 2279 1412 1946     		mov	r1, r3
 2280 1414 FFF7FEFF 		bl	__aeabi_d2f
 2281 1418 0246     		mov	r2, r0
 2282 141a 40F20003 		movw	r3, #:lower16:timeConstant
 2283 141e C0F20003 		movt	r3, #:upper16:timeConstant
 2284 1422 1A60     		str	r2, [r3, #0]	@ float
 2285 1424 40F20003 		movw	r3, #:lower16:timeConstant
 2286 1428 C0F20003 		movt	r3, #:upper16:timeConstant
 2287 142c 1B68     		ldr	r3, [r3, #0]	@ float
 2288 142e 1846     		mov	r0, r3
 2289 1430 4FF00001 		mov	r1, #0
 2290 1434 C4F22011 		movt	r1, 16672
 2291 1438 FFF7FEFF 		bl	__aeabi_fmul
 2292 143c 0346     		mov	r3, r0
 2293 143e 1846     		mov	r0, r3
 2294 1440 FFF7FEFF 		bl	__aeabi_f2uiz
 2295 1444 0346     		mov	r3, r0
 2296 1446 FB71     		strb	r3, [r7, #7]
 2297              	.L68:
 205:../Sources/Interrupts.c **** 	if(c=='j')				{timeConstant-=0.1;	dataout=(char)10*timeConstant;}
 2298              		.loc 1 205 0 is_stmt 1
 2299 1448 BB79     		ldrb	r3, [r7, #6]	@ zero_extendqisi2
 2300 144a 6A2B     		cmp	r3, #106
 2301 144c 2ED1     		bne	.L69
 2302              		.loc 1 205 0 is_stmt 0 discriminator 1
 2303 144e 40F20003 		movw	r3, #:lower16:timeConstant
 2304 1452 C0F20003 		movt	r3, #:upper16:timeConstant
 2305 1456 1B68     		ldr	r3, [r3, #0]	@ float
 2306 1458 1846     		mov	r0, r3
 2307 145a FFF7FEFF 		bl	__aeabi_f2d
 2308 145e 0246     		mov	r2, r0
 2309 1460 0B46     		mov	r3, r1
 2310 1462 1046     		mov	r0, r2
 2311 1464 1946     		mov	r1, r3
 2312 1466 50A3     		adr	r3, .L81+8
 2313 1468 D3E90023 		ldrd	r2, [r3]
 2314 146c FFF7FEFF 		bl	__aeabi_dsub
 2315 1470 0246     		mov	r2, r0
 2316 1472 0B46     		mov	r3, r1
 2317 1474 1046     		mov	r0, r2
 2318 1476 1946     		mov	r1, r3
 2319 1478 FFF7FEFF 		bl	__aeabi_d2f
 2320 147c 0246     		mov	r2, r0
 2321 147e 40F20003 		movw	r3, #:lower16:timeConstant
 2322 1482 C0F20003 		movt	r3, #:upper16:timeConstant
 2323 1486 1A60     		str	r2, [r3, #0]	@ float
 2324 1488 40F20003 		movw	r3, #:lower16:timeConstant
 2325 148c C0F20003 		movt	r3, #:upper16:timeConstant
 2326 1490 1B68     		ldr	r3, [r3, #0]	@ float
 2327 1492 1846     		mov	r0, r3
 2328 1494 4FF00001 		mov	r1, #0
 2329 1498 C4F22011 		movt	r1, 16672
 2330 149c FFF7FEFF 		bl	__aeabi_fmul
 2331 14a0 0346     		mov	r3, r0
 2332 14a2 1846     		mov	r0, r3
 2333 14a4 FFF7FEFF 		bl	__aeabi_f2uiz
 2334 14a8 0346     		mov	r3, r0
 2335 14aa FB71     		strb	r3, [r7, #7]
 2336              	.L69:
 206:../Sources/Interrupts.c **** 	if(c=='y')				{Alt_Kp++;				dataout=(char)Alt_Kp;}
 2337              		.loc 1 206 0 is_stmt 1
 2338 14ac BB79     		ldrb	r3, [r7, #6]	@ zero_extendqisi2
 2339 14ae 792B     		cmp	r3, #121
 2340 14b0 1AD1     		bne	.L70
 2341              		.loc 1 206 0 is_stmt 0 discriminator 1
 2342 14b2 40F20003 		movw	r3, #:lower16:Alt_Kp
 2343 14b6 C0F20003 		movt	r3, #:upper16:Alt_Kp
 2344 14ba 1B68     		ldr	r3, [r3, #0]	@ float
 2345 14bc 1846     		mov	r0, r3
 2346 14be 4FF07E51 		mov	r1, #1065353216
 2347 14c2 FFF7FEFF 		bl	__aeabi_fadd
 2348 14c6 0346     		mov	r3, r0
 2349 14c8 1A46     		mov	r2, r3
 2350 14ca 40F20003 		movw	r3, #:lower16:Alt_Kp
 2351 14ce C0F20003 		movt	r3, #:upper16:Alt_Kp
 2352 14d2 1A60     		str	r2, [r3, #0]	@ float
 2353 14d4 40F20003 		movw	r3, #:lower16:Alt_Kp
 2354 14d8 C0F20003 		movt	r3, #:upper16:Alt_Kp
 2355 14dc 1B68     		ldr	r3, [r3, #0]	@ float
 2356 14de 1846     		mov	r0, r3
 2357 14e0 FFF7FEFF 		bl	__aeabi_f2uiz
 2358 14e4 0346     		mov	r3, r0
 2359 14e6 FB71     		strb	r3, [r7, #7]
 2360              	.L70:
 207:../Sources/Interrupts.c **** 	if(c=='x')				{Alt_Kp--;				dataout=(char)Alt_Kp;}
 2361              		.loc 1 207 0 is_stmt 1
 2362 14e8 BB79     		ldrb	r3, [r7, #6]	@ zero_extendqisi2
 2363 14ea 782B     		cmp	r3, #120
 2364 14ec 1AD1     		bne	.L71
 2365              		.loc 1 207 0 is_stmt 0 discriminator 1
 2366 14ee 40F20003 		movw	r3, #:lower16:Alt_Kp
 2367 14f2 C0F20003 		movt	r3, #:upper16:Alt_Kp
 2368 14f6 1B68     		ldr	r3, [r3, #0]	@ float
 2369 14f8 1846     		mov	r0, r3
 2370 14fa 4FF07E51 		mov	r1, #1065353216
 2371 14fe FFF7FEFF 		bl	__aeabi_fsub
 2372 1502 0346     		mov	r3, r0
 2373 1504 1A46     		mov	r2, r3
 2374 1506 40F20003 		movw	r3, #:lower16:Alt_Kp
 2375 150a C0F20003 		movt	r3, #:upper16:Alt_Kp
 2376 150e 1A60     		str	r2, [r3, #0]	@ float
 2377 1510 40F20003 		movw	r3, #:lower16:Alt_Kp
 2378 1514 C0F20003 		movt	r3, #:upper16:Alt_Kp
 2379 1518 1B68     		ldr	r3, [r3, #0]	@ float
 2380 151a 1846     		mov	r0, r3
 2381 151c FFF7FEFF 		bl	__aeabi_f2uiz
 2382 1520 0346     		mov	r3, r0
 2383 1522 FB71     		strb	r3, [r7, #7]
 2384              	.L71:
 208:../Sources/Interrupts.c **** 	if(c=='v')				{Alt_Kd+=0.5;			dataout=(char)Alt_Kd;}
 2385              		.loc 1 208 0 is_stmt 1
 2386 1524 BB79     		ldrb	r3, [r7, #6]	@ zero_extendqisi2
 2387 1526 762B     		cmp	r3, #118
 2388 1528 1AD1     		bne	.L72
 2389              		.loc 1 208 0 is_stmt 0 discriminator 1
 2390 152a 40F20003 		movw	r3, #:lower16:Alt_Kd
 2391 152e C0F20003 		movt	r3, #:upper16:Alt_Kd
 2392 1532 1B68     		ldr	r3, [r3, #0]	@ float
 2393 1534 1846     		mov	r0, r3
 2394 1536 4FF07C51 		mov	r1, #1056964608
 2395 153a FFF7FEFF 		bl	__aeabi_fadd
 2396 153e 0346     		mov	r3, r0
 2397 1540 1A46     		mov	r2, r3
 2398 1542 40F20003 		movw	r3, #:lower16:Alt_Kd
 2399 1546 C0F20003 		movt	r3, #:upper16:Alt_Kd
 2400 154a 1A60     		str	r2, [r3, #0]	@ float
 2401 154c 40F20003 		movw	r3, #:lower16:Alt_Kd
 2402 1550 C0F20003 		movt	r3, #:upper16:Alt_Kd
 2403 1554 1B68     		ldr	r3, [r3, #0]	@ float
 2404 1556 1846     		mov	r0, r3
 2405 1558 FFF7FEFF 		bl	__aeabi_f2uiz
 2406 155c 0346     		mov	r3, r0
 2407 155e FB71     		strb	r3, [r7, #7]
 2408              	.L72:
 209:../Sources/Interrupts.c **** 	if(c=='b')				{Alt_Kd-=0.5;			dataout=(char)Alt_Kd;}
 2409              		.loc 1 209 0 is_stmt 1
 2410 1560 BB79     		ldrb	r3, [r7, #6]	@ zero_extendqisi2
 2411 1562 622B     		cmp	r3, #98
 2412 1564 24D1     		bne	.L73
 2413              		.loc 1 209 0 is_stmt 0 discriminator 1
 2414 1566 40F20003 		movw	r3, #:lower16:Alt_Kd
 2415 156a C0F20003 		movt	r3, #:upper16:Alt_Kd
 2416 156e 1B68     		ldr	r3, [r3, #0]	@ float
 2417 1570 1846     		mov	r0, r3
 2418 1572 4FF07C51 		mov	r1, #1056964608
 2419 1576 FFF7FEFF 		bl	__aeabi_fsub
 2420 157a 0346     		mov	r3, r0
 2421 157c 1A46     		mov	r2, r3
 2422 157e 40F20003 		movw	r3, #:lower16:Alt_Kd
 2423 1582 C0F20003 		movt	r3, #:upper16:Alt_Kd
 2424 1586 1A60     		str	r2, [r3, #0]	@ float
 2425 1588 40F20003 		movw	r3, #:lower16:Alt_Kd
 2426 158c C0F20003 		movt	r3, #:upper16:Alt_Kd
 2427 1590 1B68     		ldr	r3, [r3, #0]	@ float
 2428 1592 1846     		mov	r0, r3
 2429 1594 FFF7FEFF 		bl	__aeabi_f2uiz
 2430 1598 0346     		mov	r3, r0
 2431 159a FB71     		strb	r3, [r7, #7]
 2432 159c 08E0     		b	.L82
 2433              	.L83:
 2434 159e 00BF     		.align	3
 2435              	.L81:
 2436 15a0 9A999999 		.word	-1717986918
 2437 15a4 9999A93F 		.word	1068079513
 2438 15a8 9A999999 		.word	-1717986918
 2439 15ac 9999B93F 		.word	1069128089
 2440              	.L82:
 2441              	.L73:
 210:../Sources/Interrupts.c **** 	if(c=='n')				{Alt_Ki+=0.5;			dataout=(char)Alt_Ki;}
 2442              		.loc 1 210 0 is_stmt 1
 2443 15b0 BB79     		ldrb	r3, [r7, #6]	@ zero_extendqisi2
 2444 15b2 6E2B     		cmp	r3, #110
 2445 15b4 1AD1     		bne	.L74
 2446              		.loc 1 210 0 is_stmt 0 discriminator 1
 2447 15b6 40F20003 		movw	r3, #:lower16:Alt_Ki
 2448 15ba C0F20003 		movt	r3, #:upper16:Alt_Ki
 2449 15be 1B68     		ldr	r3, [r3, #0]	@ float
 2450 15c0 1846     		mov	r0, r3
 2451 15c2 4FF07C51 		mov	r1, #1056964608
 2452 15c6 FFF7FEFF 		bl	__aeabi_fadd
 2453 15ca 0346     		mov	r3, r0
 2454 15cc 1A46     		mov	r2, r3
 2455 15ce 40F20003 		movw	r3, #:lower16:Alt_Ki
 2456 15d2 C0F20003 		movt	r3, #:upper16:Alt_Ki
 2457 15d6 1A60     		str	r2, [r3, #0]	@ float
 2458 15d8 40F20003 		movw	r3, #:lower16:Alt_Ki
 2459 15dc C0F20003 		movt	r3, #:upper16:Alt_Ki
 2460 15e0 1B68     		ldr	r3, [r3, #0]	@ float
 2461 15e2 1846     		mov	r0, r3
 2462 15e4 FFF7FEFF 		bl	__aeabi_f2uiz
 2463 15e8 0346     		mov	r3, r0
 2464 15ea FB71     		strb	r3, [r7, #7]
 2465              	.L74:
 211:../Sources/Interrupts.c **** 	if(c=='m')				{Alt_Ki-=0.5;			dataout=(char)Alt_Ki;}
 2466              		.loc 1 211 0 is_stmt 1
 2467 15ec BB79     		ldrb	r3, [r7, #6]	@ zero_extendqisi2
 2468 15ee 6D2B     		cmp	r3, #109
 2469 15f0 1AD1     		bne	.L75
 2470              		.loc 1 211 0 is_stmt 0 discriminator 1
 2471 15f2 40F20003 		movw	r3, #:lower16:Alt_Ki
 2472 15f6 C0F20003 		movt	r3, #:upper16:Alt_Ki
 2473 15fa 1B68     		ldr	r3, [r3, #0]	@ float
 2474 15fc 1846     		mov	r0, r3
 2475 15fe 4FF07C51 		mov	r1, #1056964608
 2476 1602 FFF7FEFF 		bl	__aeabi_fsub
 2477 1606 0346     		mov	r3, r0
 2478 1608 1A46     		mov	r2, r3
 2479 160a 40F20003 		movw	r3, #:lower16:Alt_Ki
 2480 160e C0F20003 		movt	r3, #:upper16:Alt_Ki
 2481 1612 1A60     		str	r2, [r3, #0]	@ float
 2482 1614 40F20003 		movw	r3, #:lower16:Alt_Ki
 2483 1618 C0F20003 		movt	r3, #:upper16:Alt_Ki
 2484 161c 1B68     		ldr	r3, [r3, #0]	@ float
 2485 161e 1846     		mov	r0, r3
 2486 1620 FFF7FEFF 		bl	__aeabi_f2uiz
 2487 1624 0346     		mov	r3, r0
 2488 1626 FB71     		strb	r3, [r7, #7]
 2489              	.L75:
 212:../Sources/Interrupts.c **** 	uart_putchar(UART1_BASE_PTR,dataout);
 2490              		.loc 1 212 0 is_stmt 1
 2491 1628 FB79     		ldrb	r3, [r7, #7]	@ zero_extendqisi2
 2492 162a 4FF43040 		mov	r0, #45056
 2493 162e C4F20600 		movt	r0, 16390
 2494 1632 1946     		mov	r1, r3
 2495 1634 FFF7FEFF 		bl	uart_putchar
 213:../Sources/Interrupts.c **** #endif
 214:../Sources/Interrupts.c **** 	if(setpoint_x>15) setpoint_x=15;
 2496              		.loc 1 214 0
 2497 1638 40F20003 		movw	r3, #:lower16:setpoint_x
 2498 163c C0F20003 		movt	r3, #:upper16:setpoint_x
 2499 1640 1B68     		ldr	r3, [r3, #0]
 2500 1642 0F2B     		cmp	r3, #15
 2501 1644 06DD     		ble	.L76
 2502              		.loc 1 214 0 is_stmt 0 discriminator 1
 2503 1646 40F20003 		movw	r3, #:lower16:setpoint_x
 2504 164a C0F20003 		movt	r3, #:upper16:setpoint_x
 2505 164e 4FF00F02 		mov	r2, #15
 2506 1652 1A60     		str	r2, [r3, #0]
 2507              	.L76:
 215:../Sources/Interrupts.c **** 	if(setpoint_x<-15) setpoint_x=-15;
 2508              		.loc 1 215 0 is_stmt 1
 2509 1654 40F20003 		movw	r3, #:lower16:setpoint_x
 2510 1658 C0F20003 		movt	r3, #:upper16:setpoint_x
 2511 165c 1B68     		ldr	r3, [r3, #0]
 2512 165e 13F10F0F 		cmn	r3, #15
 2513 1662 06DA     		bge	.L77
 2514              		.loc 1 215 0 is_stmt 0 discriminator 1
 2515 1664 40F20003 		movw	r3, #:lower16:setpoint_x
 2516 1668 C0F20003 		movt	r3, #:upper16:setpoint_x
 2517 166c 6FF00E02 		mvn	r2, #14
 2518 1670 1A60     		str	r2, [r3, #0]
 2519              	.L77:
 216:../Sources/Interrupts.c **** 	if(setpoint_y>15) setpoint_y=15;
 2520              		.loc 1 216 0 is_stmt 1
 2521 1672 40F20003 		movw	r3, #:lower16:setpoint_y
 2522 1676 C0F20003 		movt	r3, #:upper16:setpoint_y
 2523 167a 1B68     		ldr	r3, [r3, #0]
 2524 167c 0F2B     		cmp	r3, #15
 2525 167e 06DD     		ble	.L78
 2526              		.loc 1 216 0 is_stmt 0 discriminator 1
 2527 1680 40F20003 		movw	r3, #:lower16:setpoint_y
 2528 1684 C0F20003 		movt	r3, #:upper16:setpoint_y
 2529 1688 4FF00F02 		mov	r2, #15
 2530 168c 1A60     		str	r2, [r3, #0]
 2531              	.L78:
 217:../Sources/Interrupts.c **** 	if(setpoint_y<-15) setpoint_y=-15;
 2532              		.loc 1 217 0 is_stmt 1
 2533 168e 40F20003 		movw	r3, #:lower16:setpoint_y
 2534 1692 C0F20003 		movt	r3, #:upper16:setpoint_y
 2535 1696 1B68     		ldr	r3, [r3, #0]
 2536 1698 13F10F0F 		cmn	r3, #15
 2537 169c 06DA     		bge	.L79
 2538              		.loc 1 217 0 is_stmt 0 discriminator 1
 2539 169e 40F20003 		movw	r3, #:lower16:setpoint_y
 2540 16a2 C0F20003 		movt	r3, #:upper16:setpoint_y
 2541 16a6 6FF00E02 		mvn	r2, #14
 2542 16aa 1A60     		str	r2, [r3, #0]
 2543              	.L79:
 218:../Sources/Interrupts.c **** 	if(basepower>500) basepower=500;
 2544              		.loc 1 218 0 is_stmt 1
 2545 16ac 40F20003 		movw	r3, #:lower16:basepower
 2546 16b0 C0F20003 		movt	r3, #:upper16:basepower
 2547 16b4 1B68     		ldr	r3, [r3, #0]
 2548 16b6 B3F5FA7F 		cmp	r3, #500
 2549 16ba 06DD     		ble	.L47
 2550              		.loc 1 218 0 is_stmt 0 discriminator 1
 2551 16bc 40F20003 		movw	r3, #:lower16:basepower
 2552 16c0 C0F20003 		movt	r3, #:upper16:basepower
 2553 16c4 4FF4FA72 		mov	r2, #500
 2554 16c8 1A60     		str	r2, [r3, #0]
 2555              	.L47:
 219:../Sources/Interrupts.c **** #if !PID_tuning
 220:../Sources/Interrupts.c **** 	uart_putchar(UART1_BASE_PTR,(char)(10*BATT_VOLT));
 221:../Sources/Interrupts.c **** #endif
 222:../Sources/Interrupts.c **** 	//enable_irq(INT_PORTA - 16); 2015.12.9
 223:../Sources/Interrupts.c **** }
 2556              		.loc 1 223 0 is_stmt 1
 2557 16ca 07F10807 		add	r7, r7, #8
 2558 16ce BD46     		mov	sp, r7
 2559 16d0 80BD     		pop	{r7, pc}
 2560              		.cfi_endproc
 2561              	.LFE6:
 2563 16d2 00BF     		.align	2
 2564              		.global	bluetooth_lostconnection
 2565              		.thumb
 2566              		.thumb_func
 2568              	bluetooth_lostconnection:
 2569              	.LFB7:
 224:../Sources/Interrupts.c **** 
 225:../Sources/Interrupts.c **** void bluetooth_lostconnection()
 226:../Sources/Interrupts.c **** {
 2570              		.loc 1 226 0
 2571              		.cfi_startproc
 2572              		@ args = 0, pretend = 0, frame = 0
 2573              		@ frame_needed = 1, uses_anonymous_args = 0
 2574 16d4 80B5     		push	{r7, lr}
 2575              	.LCFI19:
 2576              		.cfi_def_cfa_offset 8
 2577              		.cfi_offset 7, -8
 2578              		.cfi_offset 14, -4
 2579 16d6 00AF     		add	r7, sp, #0
 2580              	.LCFI20:
 2581              		.cfi_def_cfa_register 7
 227:../Sources/Interrupts.c **** 	flag_landing=1;
 2582              		.loc 1 227 0
 2583 16d8 40F20003 		movw	r3, #:lower16:flag_landing
 2584 16dc C0F20003 		movt	r3, #:upper16:flag_landing
 2585 16e0 4FF00102 		mov	r2, #1
 2586 16e4 1A70     		strb	r2, [r3, #0]
 228:../Sources/Interrupts.c **** 	PORTA_PCR5 |= PORT_PCR_IRQC(5);
 2587              		.loc 1 228 0
 2588 16e6 4FF41043 		mov	r3, #36864
 2589 16ea C4F20403 		movt	r3, 16388
 2590 16ee 4FF41042 		mov	r2, #36864
 2591 16f2 C4F20402 		movt	r2, 16388
 2592 16f6 5269     		ldr	r2, [r2, #20]
 2593 16f8 42F4A022 		orr	r2, r2, #327680
 2594 16fc 5A61     		str	r2, [r3, #20]
 229:../Sources/Interrupts.c **** 	disable_irq(INT_PORTA - 16);
 2595              		.loc 1 229 0
 2596 16fe 4FF05700 		mov	r0, #87
 2597 1702 FFF7FEFF 		bl	disable_irq
 230:../Sources/Interrupts.c **** }
 2598              		.loc 1 230 0
 2599 1706 80BD     		pop	{r7, pc}
 2600              		.cfi_endproc
 2601              	.LFE7:
 2603              		.global	__aeabi_dmul
 2604              		.global	__aeabi_ddiv
 2605              		.global	__aeabi_fdiv
 2606              		.global	__aeabi_dcmplt
 2607              		.align	2
 2608              		.global	ADC
 2609              		.thumb
 2610              		.thumb_func
 2612              	ADC:
 2613              	.LFB8:
 231:../Sources/Interrupts.c **** 
 232:../Sources/Interrupts.c **** void ADC()
 233:../Sources/Interrupts.c **** {
 2614              		.loc 1 233 0
 2615              		.cfi_startproc
 2616              		@ args = 0, pretend = 0, frame = 16
 2617              		@ frame_needed = 1, uses_anonymous_args = 0
 2618 1708 B0B5     		push	{r4, r5, r7, lr}
 2619              	.LCFI21:
 2620              		.cfi_def_cfa_offset 16
 2621              		.cfi_offset 4, -16
 2622              		.cfi_offset 5, -12
 2623              		.cfi_offset 7, -8
 2624              		.cfi_offset 14, -4
 2625 170a 84B0     		sub	sp, sp, #16
 2626              	.LCFI22:
 2627              		.cfi_def_cfa_offset 32
 2628 170c 00AF     		add	r7, sp, #0
 2629              	.LCFI23:
 2630              		.cfi_def_cfa_register 7
 234:../Sources/Interrupts.c **** 	char mode=0,adc_register;
 2631              		.loc 1 234 0
 2632 170e 4FF00003 		mov	r3, #0
 2633 1712 FB71     		strb	r3, [r7, #7]
 235:../Sources/Interrupts.c **** 	//FTM1_CNT=0;	2015.11
 236:../Sources/Interrupts.c **** #if ADC_avg==1	
 237:../Sources/Interrupts.c **** 	if((ADC0_SC1A & ADC_SC1_ADCH_MASK) == 23)	{adc[0]=ADC0_RA;	adc_register=21 | 0b1000000;}	//read co
 238:../Sources/Interrupts.c **** 	if((ADC0_SC1A & ADC_SC1_ADCH_MASK) == 21)	{adc[1]=ADC0_RA;	adc_register=0 | 0b1000000;}
 239:../Sources/Interrupts.c **** 	if((ADC0_SC1A & ADC_SC1_ADCH_MASK) == 0)	{adc[2]=ADC0_RA;	adc_register=8 | 0b1000000;}
 240:../Sources/Interrupts.c **** 	if((ADC0_SC1A & ADC_SC1_ADCH_MASK) == 8)	{adc[3]=ADC0_RA;	adc_register=9 | 0b1000000;}
 241:../Sources/Interrupts.c **** 	if((ADC0_SC1A & ADC_SC1_ADCH_MASK) == 9)	{adc[4]=ADC0_RA;	adc_register=14 | 0b1000000;}
 242:../Sources/Interrupts.c **** 	if((ADC0_SC1A & ADC_SC1_ADCH_MASK) == 14)	{adc[5]=ADC0_RA;	adc_register=15 | 0b1000000;}
 243:../Sources/Interrupts.c **** 	if((ADC0_SC1A & ADC_SC1_ADCH_MASK) == 15)	{adc[6]=ADC0_RA;	adc_register=19 | 0b1000000;}
 244:../Sources/Interrupts.c **** 	if((ADC0_SC1A & ADC_SC1_ADCH_MASK) == 19)	{adc[7]=ADC0_RA;	adc_register=23 | 0b1000000; disable_ir
 245:../Sources/Interrupts.c **** 	batt1_vol=0.99*batt1_vol+0.01*(float)(adc[0]<<mode)/13538;
 246:../Sources/Interrupts.c **** 	batt2_vol=0.99*batt2_vol+0.01*((float)(adc[1]<<mode)/7019-batt1_vol);
 247:../Sources/Interrupts.c **** 	batt3_vol=0.99*batt3_vol+0.01*((float)(adc[2]<<mode)/4955-batt1_vol-batt2_vol);
 248:../Sources/Interrupts.c **** 	BATT_VOLT=batt1_vol+batt2_vol+batt3_vol;
 249:../Sources/Interrupts.c **** 	if((batt1_vol<BATTERY_MINIMUM_VOLTAGE || batt2_vol<BATTERY_MINIMUM_VOLTAGE || batt3_vol<BATTERY_MI
 250:../Sources/Interrupts.c **** #else
 251:../Sources/Interrupts.c **** 	static uint8_t MUXSEL_FLAG=0;
 252:../Sources/Interrupts.c **** 	//read conversation result; start new conversation
 253:../Sources/Interrupts.c **** /*	if((ADC0_SC1A & ADC_SC1_ADCH_MASK) == 0)	{adc_temp[0]+=ADC0_RA;	adc_register=4 	| 0b1000000;}			
 254:../Sources/Interrupts.c **** 	if((ADC0_SC1A & ADC_SC1_ADCH_MASK) == 4)	{adc_temp[1]+=ADC0_RA;	adc_register=3 	| 0b1000000;}					
 255:../Sources/Interrupts.c **** 	if((ADC0_SC1A & ADC_SC1_ADCH_MASK) == 3)	{adc_temp[2]+=ADC0_RA;	adc_register=7 	| 0b1000000;}					
 256:../Sources/Interrupts.c **** 	if((ADC0_SC1A & ADC_SC1_ADCH_MASK) == 7)	{adc_temp[3]+=ADC0_RA;	adc_register=4 	| 0b1000000; ADC0_
 257:../Sources/Interrupts.c **** 	if((ADC0_SC1A & ADC_SC1_ADCH_MASK) == 4)	{adc_temp[4]+=ADC0_RA;	adc_register=5 	| 0b1000000;}	*/		
 258:../Sources/Interrupts.c **** 	if((ADC0_SC1A & ADC_SC1_ADCH_MASK) == 5)	{adc_temp[5]+=ADC0_RA;	adc_register=6 	| 0b1000000;}					
 2634              		.loc 1 258 0
 2635 1714 4FF43043 		mov	r3, #45056
 2636 1718 C4F20303 		movt	r3, 16387
 2637 171c 1B68     		ldr	r3, [r3, #0]
 2638 171e 03F01F03 		and	r3, r3, #31
 2639 1722 052B     		cmp	r3, #5
 2640 1724 14D1     		bne	.L86
 2641              		.loc 1 258 0 is_stmt 0 discriminator 1
 2642 1726 40F20003 		movw	r3, #:lower16:adc_temp
 2643 172a C0F20003 		movt	r3, #:upper16:adc_temp
 2644 172e 5B69     		ldr	r3, [r3, #20]
 2645 1730 1A46     		mov	r2, r3
 2646 1732 4FF43043 		mov	r3, #45056
 2647 1736 C4F20303 		movt	r3, 16387
 2648 173a 1B69     		ldr	r3, [r3, #16]
 2649 173c D318     		adds	r3, r2, r3
 2650 173e 1A46     		mov	r2, r3
 2651 1740 40F20003 		movw	r3, #:lower16:adc_temp
 2652 1744 C0F20003 		movt	r3, #:upper16:adc_temp
 2653 1748 5A61     		str	r2, [r3, #20]
 2654 174a 4FF04603 		mov	r3, #70
 2655 174e FB73     		strb	r3, [r7, #15]
 2656              	.L86:
 259:../Sources/Interrupts.c **** 	if((ADC0_SC1A & ADC_SC1_ADCH_MASK) == 6)	{adc_temp[6]+=ADC0_RA;	adc_register=7 	| 0b1000000;}					
 2657              		.loc 1 259 0 is_stmt 1
 2658 1750 4FF43043 		mov	r3, #45056
 2659 1754 C4F20303 		movt	r3, 16387
 2660 1758 1B68     		ldr	r3, [r3, #0]
 2661 175a 03F01F03 		and	r3, r3, #31
 2662 175e 062B     		cmp	r3, #6
 2663 1760 14D1     		bne	.L87
 2664              		.loc 1 259 0 is_stmt 0 discriminator 1
 2665 1762 40F20003 		movw	r3, #:lower16:adc_temp
 2666 1766 C0F20003 		movt	r3, #:upper16:adc_temp
 2667 176a 9B69     		ldr	r3, [r3, #24]
 2668 176c 1A46     		mov	r2, r3
 2669 176e 4FF43043 		mov	r3, #45056
 2670 1772 C4F20303 		movt	r3, 16387
 2671 1776 1B69     		ldr	r3, [r3, #16]
 2672 1778 D318     		adds	r3, r2, r3
 2673 177a 1A46     		mov	r2, r3
 2674 177c 40F20003 		movw	r3, #:lower16:adc_temp
 2675 1780 C0F20003 		movt	r3, #:upper16:adc_temp
 2676 1784 9A61     		str	r2, [r3, #24]
 2677 1786 4FF04703 		mov	r3, #71
 2678 178a FB73     		strb	r3, [r7, #15]
 2679              	.L87:
 260:../Sources/Interrupts.c **** 	if((ADC0_SC1A & ADC_SC1_ADCH_MASK) == 7)	{adc_temp[7]+=ADC0_RA;	adc_register=8	| 0b1000000; ADC0_C
 2680              		.loc 1 260 0 is_stmt 1
 2681 178c 4FF43043 		mov	r3, #45056
 2682 1790 C4F20303 		movt	r3, 16387
 2683 1794 1B68     		ldr	r3, [r3, #0]
 2684 1796 03F01F03 		and	r3, r3, #31
 2685 179a 072B     		cmp	r3, #7
 2686 179c 20D1     		bne	.L88
 2687              		.loc 1 260 0 is_stmt 0 discriminator 1
 2688 179e 40F20003 		movw	r3, #:lower16:adc_temp
 2689 17a2 C0F20003 		movt	r3, #:upper16:adc_temp
 2690 17a6 DB69     		ldr	r3, [r3, #28]
 2691 17a8 1A46     		mov	r2, r3
 2692 17aa 4FF43043 		mov	r3, #45056
 2693 17ae C4F20303 		movt	r3, 16387
 2694 17b2 1B69     		ldr	r3, [r3, #16]
 2695 17b4 D318     		adds	r3, r2, r3
 2696 17b6 1A46     		mov	r2, r3
 2697 17b8 40F20003 		movw	r3, #:lower16:adc_temp
 2698 17bc C0F20003 		movt	r3, #:upper16:adc_temp
 2699 17c0 DA61     		str	r2, [r3, #28]
 2700 17c2 4FF04803 		mov	r3, #72
 2701 17c6 FB73     		strb	r3, [r7, #15]
 2702 17c8 4FF43043 		mov	r3, #45056
 2703 17cc C4F20303 		movt	r3, 16387
 2704 17d0 4FF43042 		mov	r2, #45056
 2705 17d4 C4F20302 		movt	r2, 16387
 2706 17d8 D268     		ldr	r2, [r2, #12]
 2707 17da 22F01002 		bic	r2, r2, #16
 2708 17de DA60     		str	r2, [r3, #12]
 2709              	.L88:
 261:../Sources/Interrupts.c **** 	if((ADC0_SC1A & ADC_SC1_ADCH_MASK) == 8)	{adc_temp[8]+=ADC0_RA;	adc_register=9  | 0b1000000;}					
 2710              		.loc 1 261 0 is_stmt 1
 2711 17e0 4FF43043 		mov	r3, #45056
 2712 17e4 C4F20303 		movt	r3, 16387
 2713 17e8 1B68     		ldr	r3, [r3, #0]
 2714 17ea 03F01F03 		and	r3, r3, #31
 2715 17ee 082B     		cmp	r3, #8
 2716 17f0 14D1     		bne	.L89
 2717              		.loc 1 261 0 is_stmt 0 discriminator 1
 2718 17f2 40F20003 		movw	r3, #:lower16:adc_temp
 2719 17f6 C0F20003 		movt	r3, #:upper16:adc_temp
 2720 17fa 1B6A     		ldr	r3, [r3, #32]
 2721 17fc 1A46     		mov	r2, r3
 2722 17fe 4FF43043 		mov	r3, #45056
 2723 1802 C4F20303 		movt	r3, 16387
 2724 1806 1B69     		ldr	r3, [r3, #16]
 2725 1808 D318     		adds	r3, r2, r3
 2726 180a 1A46     		mov	r2, r3
 2727 180c 40F20003 		movw	r3, #:lower16:adc_temp
 2728 1810 C0F20003 		movt	r3, #:upper16:adc_temp
 2729 1814 1A62     		str	r2, [r3, #32]
 2730 1816 4FF04903 		mov	r3, #73
 2731 181a FB73     		strb	r3, [r7, #15]
 2732              	.L89:
 262:../Sources/Interrupts.c **** 	if((ADC0_SC1A & ADC_SC1_ADCH_MASK) == 9)	{adc_temp[9]+=ADC0_RA;	adc_register=11 | 0b1000000;}					
 2733              		.loc 1 262 0 is_stmt 1
 2734 181c 4FF43043 		mov	r3, #45056
 2735 1820 C4F20303 		movt	r3, 16387
 2736 1824 1B68     		ldr	r3, [r3, #0]
 2737 1826 03F01F03 		and	r3, r3, #31
 2738 182a 092B     		cmp	r3, #9
 2739 182c 14D1     		bne	.L90
 2740              		.loc 1 262 0 is_stmt 0 discriminator 1
 2741 182e 40F20003 		movw	r3, #:lower16:adc_temp
 2742 1832 C0F20003 		movt	r3, #:upper16:adc_temp
 2743 1836 5B6A     		ldr	r3, [r3, #36]
 2744 1838 1A46     		mov	r2, r3
 2745 183a 4FF43043 		mov	r3, #45056
 2746 183e C4F20303 		movt	r3, 16387
 2747 1842 1B69     		ldr	r3, [r3, #16]
 2748 1844 D318     		adds	r3, r2, r3
 2749 1846 1A46     		mov	r2, r3
 2750 1848 40F20003 		movw	r3, #:lower16:adc_temp
 2751 184c C0F20003 		movt	r3, #:upper16:adc_temp
 2752 1850 5A62     		str	r2, [r3, #36]
 2753 1852 4FF04B03 		mov	r3, #75
 2754 1856 FB73     		strb	r3, [r7, #15]
 2755              	.L90:
 263:../Sources/Interrupts.c **** 	if((ADC0_SC1A & ADC_SC1_ADCH_MASK) == 11)	{adc_temp[10]+=ADC0_RA;	adc_register=12 | 0b1000000;}			
 2756              		.loc 1 263 0 is_stmt 1
 2757 1858 4FF43043 		mov	r3, #45056
 2758 185c C4F20303 		movt	r3, 16387
 2759 1860 1B68     		ldr	r3, [r3, #0]
 2760 1862 03F01F03 		and	r3, r3, #31
 2761 1866 0B2B     		cmp	r3, #11
 2762 1868 14D1     		bne	.L91
 2763              		.loc 1 263 0 is_stmt 0 discriminator 1
 2764 186a 40F20003 		movw	r3, #:lower16:adc_temp
 2765 186e C0F20003 		movt	r3, #:upper16:adc_temp
 2766 1872 9B6A     		ldr	r3, [r3, #40]
 2767 1874 1A46     		mov	r2, r3
 2768 1876 4FF43043 		mov	r3, #45056
 2769 187a C4F20303 		movt	r3, 16387
 2770 187e 1B69     		ldr	r3, [r3, #16]
 2771 1880 D318     		adds	r3, r2, r3
 2772 1882 1A46     		mov	r2, r3
 2773 1884 40F20003 		movw	r3, #:lower16:adc_temp
 2774 1888 C0F20003 		movt	r3, #:upper16:adc_temp
 2775 188c 9A62     		str	r2, [r3, #40]
 2776 188e 4FF04C03 		mov	r3, #76
 2777 1892 FB73     		strb	r3, [r7, #15]
 2778              	.L91:
 264:../Sources/Interrupts.c **** 	if((ADC0_SC1A & ADC_SC1_ADCH_MASK) == 12)	{adc_temp[11]+=ADC0_RA;	adc_register=13 | 0b1000000;}			
 2779              		.loc 1 264 0 is_stmt 1
 2780 1894 4FF43043 		mov	r3, #45056
 2781 1898 C4F20303 		movt	r3, 16387
 2782 189c 1B68     		ldr	r3, [r3, #0]
 2783 189e 03F01F03 		and	r3, r3, #31
 2784 18a2 0C2B     		cmp	r3, #12
 2785 18a4 14D1     		bne	.L92
 2786              		.loc 1 264 0 is_stmt 0 discriminator 1
 2787 18a6 40F20003 		movw	r3, #:lower16:adc_temp
 2788 18aa C0F20003 		movt	r3, #:upper16:adc_temp
 2789 18ae DB6A     		ldr	r3, [r3, #44]
 2790 18b0 1A46     		mov	r2, r3
 2791 18b2 4FF43043 		mov	r3, #45056
 2792 18b6 C4F20303 		movt	r3, 16387
 2793 18ba 1B69     		ldr	r3, [r3, #16]
 2794 18bc D318     		adds	r3, r2, r3
 2795 18be 1A46     		mov	r2, r3
 2796 18c0 40F20003 		movw	r3, #:lower16:adc_temp
 2797 18c4 C0F20003 		movt	r3, #:upper16:adc_temp
 2798 18c8 DA62     		str	r2, [r3, #44]
 2799 18ca 4FF04D03 		mov	r3, #77
 2800 18ce FB73     		strb	r3, [r7, #15]
 2801              	.L92:
 265:../Sources/Interrupts.c **** 	if((ADC0_SC1A & ADC_SC1_ADCH_MASK) == 13)	{adc_temp[12]+=ADC0_RA;	adc_register=14	| 0b1000000;}			
 2802              		.loc 1 265 0 is_stmt 1
 2803 18d0 4FF43043 		mov	r3, #45056
 2804 18d4 C4F20303 		movt	r3, 16387
 2805 18d8 1B68     		ldr	r3, [r3, #0]
 2806 18da 03F01F03 		and	r3, r3, #31
 2807 18de 0D2B     		cmp	r3, #13
 2808 18e0 14D1     		bne	.L93
 2809              		.loc 1 265 0 is_stmt 0 discriminator 1
 2810 18e2 40F20003 		movw	r3, #:lower16:adc_temp
 2811 18e6 C0F20003 		movt	r3, #:upper16:adc_temp
 2812 18ea 1B6B     		ldr	r3, [r3, #48]
 2813 18ec 1A46     		mov	r2, r3
 2814 18ee 4FF43043 		mov	r3, #45056
 2815 18f2 C4F20303 		movt	r3, 16387
 2816 18f6 1B69     		ldr	r3, [r3, #16]
 2817 18f8 D318     		adds	r3, r2, r3
 2818 18fa 1A46     		mov	r2, r3
 2819 18fc 40F20003 		movw	r3, #:lower16:adc_temp
 2820 1900 C0F20003 		movt	r3, #:upper16:adc_temp
 2821 1904 1A63     		str	r2, [r3, #48]
 2822 1906 4FF04E03 		mov	r3, #78
 2823 190a FB73     		strb	r3, [r7, #15]
 2824              	.L93:
 266:../Sources/Interrupts.c **** 	if((ADC0_SC1A & ADC_SC1_ADCH_MASK) == 14)	{adc_temp[13]+=ADC0_RA;	adc_register=15 | 0b1000000;}			
 2825              		.loc 1 266 0 is_stmt 1
 2826 190c 4FF43043 		mov	r3, #45056
 2827 1910 C4F20303 		movt	r3, 16387
 2828 1914 1B68     		ldr	r3, [r3, #0]
 2829 1916 03F01F03 		and	r3, r3, #31
 2830 191a 0E2B     		cmp	r3, #14
 2831 191c 14D1     		bne	.L94
 2832              		.loc 1 266 0 is_stmt 0 discriminator 1
 2833 191e 40F20003 		movw	r3, #:lower16:adc_temp
 2834 1922 C0F20003 		movt	r3, #:upper16:adc_temp
 2835 1926 5B6B     		ldr	r3, [r3, #52]
 2836 1928 1A46     		mov	r2, r3
 2837 192a 4FF43043 		mov	r3, #45056
 2838 192e C4F20303 		movt	r3, 16387
 2839 1932 1B69     		ldr	r3, [r3, #16]
 2840 1934 D318     		adds	r3, r2, r3
 2841 1936 1A46     		mov	r2, r3
 2842 1938 40F20003 		movw	r3, #:lower16:adc_temp
 2843 193c C0F20003 		movt	r3, #:upper16:adc_temp
 2844 1940 5A63     		str	r2, [r3, #52]
 2845 1942 4FF04F03 		mov	r3, #79
 2846 1946 FB73     		strb	r3, [r7, #15]
 2847              	.L94:
 267:../Sources/Interrupts.c **** 	if((ADC0_SC1A & ADC_SC1_ADCH_MASK) == 15)	{adc_temp[14]+=ADC0_RA;	adc_register=23 | 0b1000000;}			
 2848              		.loc 1 267 0 is_stmt 1
 2849 1948 4FF43043 		mov	r3, #45056
 2850 194c C4F20303 		movt	r3, 16387
 2851 1950 1B68     		ldr	r3, [r3, #0]
 2852 1952 03F01F03 		and	r3, r3, #31
 2853 1956 0F2B     		cmp	r3, #15
 2854 1958 14D1     		bne	.L95
 2855              		.loc 1 267 0 is_stmt 0 discriminator 1
 2856 195a 40F20003 		movw	r3, #:lower16:adc_temp
 2857 195e C0F20003 		movt	r3, #:upper16:adc_temp
 2858 1962 9B6B     		ldr	r3, [r3, #56]
 2859 1964 1A46     		mov	r2, r3
 2860 1966 4FF43043 		mov	r3, #45056
 2861 196a C4F20303 		movt	r3, 16387
 2862 196e 1B69     		ldr	r3, [r3, #16]
 2863 1970 D318     		adds	r3, r2, r3
 2864 1972 1A46     		mov	r2, r3
 2865 1974 40F20003 		movw	r3, #:lower16:adc_temp
 2866 1978 C0F20003 		movt	r3, #:upper16:adc_temp
 2867 197c 9A63     		str	r2, [r3, #56]
 2868 197e 4FF05703 		mov	r3, #87
 2869 1982 FB73     		strb	r3, [r7, #15]
 2870              	.L95:
 268:../Sources/Interrupts.c **** 	if((ADC0_SC1A & ADC_SC1_ADCH_MASK) == 23)	{adc_temp[15]+=ADC0_RA;	adc_register=5	| 0b1000000; adc_
 2871              		.loc 1 268 0 is_stmt 1
 2872 1984 4FF43043 		mov	r3, #45056
 2873 1988 C4F20303 		movt	r3, 16387
 2874 198c 1B68     		ldr	r3, [r3, #0]
 2875 198e 03F01F03 		and	r3, r3, #31
 2876 1992 172B     		cmp	r3, #23
 2877 1994 2DD1     		bne	.L96
 2878              		.loc 1 268 0 is_stmt 0 discriminator 1
 2879 1996 40F20003 		movw	r3, #:lower16:adc_temp
 2880 199a C0F20003 		movt	r3, #:upper16:adc_temp
 2881 199e DB6B     		ldr	r3, [r3, #60]
 2882 19a0 1A46     		mov	r2, r3
 2883 19a2 4FF43043 		mov	r3, #45056
 2884 19a6 C4F20303 		movt	r3, 16387
 2885 19aa 1B69     		ldr	r3, [r3, #16]
 2886 19ac D318     		adds	r3, r2, r3
 2887 19ae 1A46     		mov	r2, r3
 2888 19b0 40F20003 		movw	r3, #:lower16:adc_temp
 2889 19b4 C0F20003 		movt	r3, #:upper16:adc_temp
 2890 19b8 DA63     		str	r2, [r3, #60]
 2891 19ba 4FF04503 		mov	r3, #69
 2892 19be FB73     		strb	r3, [r7, #15]
 2893 19c0 40F20003 		movw	r3, #:lower16:adc_flag
 2894 19c4 C0F20003 		movt	r3, #:upper16:adc_flag
 2895 19c8 1B78     		ldrb	r3, [r3, #0]	@ zero_extendqisi2
 2896 19ca 03F10103 		add	r3, r3, #1
 2897 19ce DAB2     		uxtb	r2, r3
 2898 19d0 40F20003 		movw	r3, #:lower16:adc_flag
 2899 19d4 C0F20003 		movt	r3, #:upper16:adc_flag
 2900 19d8 1A70     		strb	r2, [r3, #0]
 2901 19da 4FF43043 		mov	r3, #45056
 2902 19de C4F20303 		movt	r3, 16387
 2903 19e2 4FF43042 		mov	r2, #45056
 2904 19e6 C4F20302 		movt	r2, 16387
 2905 19ea D268     		ldr	r2, [r2, #12]
 2906 19ec 42F01002 		orr	r2, r2, #16
 2907 19f0 DA60     		str	r2, [r3, #12]
 2908              	.L96:
 269:../Sources/Interrupts.c **** 	if(adc_flag>=ADC_avg) 
 2909              		.loc 1 269 0 is_stmt 1
 2910 19f2 40F20003 		movw	r3, #:lower16:adc_flag
 2911 19f6 C0F20003 		movt	r3, #:upper16:adc_flag
 2912 19fa 1B78     		ldrb	r3, [r3, #0]	@ zero_extendqisi2
 2913 19fc 012B     		cmp	r3, #1
 2914 19fe 40F2A281 		bls	.L97
 2915              	.LBB2:
 270:../Sources/Interrupts.c **** 		{
 271:../Sources/Interrupts.c **** 		int i;
 272:../Sources/Interrupts.c **** 		for(i=0;i<16;i++)	{adc[i]=adc_temp[i]/(adc_flag); adc_temp[i]=0;}
 2916              		.loc 1 272 0
 2917 1a02 4FF00003 		mov	r3, #0
 2918 1a06 BB60     		str	r3, [r7, #8]
 2919 1a08 21E0     		b	.L98
 2920              	.L99:
 2921              		.loc 1 272 0 is_stmt 0 discriminator 2
 2922 1a0a 40F20003 		movw	r3, #:lower16:adc_temp
 2923 1a0e C0F20003 		movt	r3, #:upper16:adc_temp
 2924 1a12 BA68     		ldr	r2, [r7, #8]
 2925 1a14 53F82220 		ldr	r2, [r3, r2, lsl #2]
 2926 1a18 40F20003 		movw	r3, #:lower16:adc_flag
 2927 1a1c C0F20003 		movt	r3, #:upper16:adc_flag
 2928 1a20 1B78     		ldrb	r3, [r3, #0]	@ zero_extendqisi2
 2929 1a22 92FBF3F1 		sdiv	r1, r2, r3
 2930 1a26 40F20003 		movw	r3, #:lower16:adc
 2931 1a2a C0F20003 		movt	r3, #:upper16:adc
 2932 1a2e BA68     		ldr	r2, [r7, #8]
 2933 1a30 43F82210 		str	r1, [r3, r2, lsl #2]
 2934 1a34 40F20003 		movw	r3, #:lower16:adc_temp
 2935 1a38 C0F20003 		movt	r3, #:upper16:adc_temp
 2936 1a3c BA68     		ldr	r2, [r7, #8]
 2937 1a3e 4FF00001 		mov	r1, #0
 2938 1a42 43F82210 		str	r1, [r3, r2, lsl #2]
 2939 1a46 BB68     		ldr	r3, [r7, #8]
 2940 1a48 03F10103 		add	r3, r3, #1
 2941 1a4c BB60     		str	r3, [r7, #8]
 2942              	.L98:
 2943              		.loc 1 272 0 discriminator 1
 2944 1a4e BB68     		ldr	r3, [r7, #8]
 2945 1a50 0F2B     		cmp	r3, #15
 2946 1a52 DADD     		ble	.L99
 273:../Sources/Interrupts.c **** 		batt1_vol=0.99*batt1_vol+0.01*(float)(adc[13]<<mode)/22172;	//17007, 16500, 22939
 2947              		.loc 1 273 0 is_stmt 1
 2948 1a54 40F20003 		movw	r3, #:lower16:batt1_vol
 2949 1a58 C0F20003 		movt	r3, #:upper16:batt1_vol
 2950 1a5c 1B68     		ldr	r3, [r3, #0]	@ float
 2951 1a5e 1846     		mov	r0, r3
 2952 1a60 FFF7FEFF 		bl	__aeabi_f2d
 2953 1a64 0246     		mov	r2, r0
 2954 1a66 0B46     		mov	r3, r1
 2955 1a68 1046     		mov	r0, r2
 2956 1a6a 1946     		mov	r1, r3
 2957 1a6c A4A3     		adr	r3, .L103
 2958 1a6e D3E90023 		ldrd	r2, [r3]
 2959 1a72 FFF7FEFF 		bl	__aeabi_dmul
 2960 1a76 0246     		mov	r2, r0
 2961 1a78 0B46     		mov	r3, r1
 2962 1a7a 1446     		mov	r4, r2
 2963 1a7c 1D46     		mov	r5, r3
 2964 1a7e 40F20003 		movw	r3, #:lower16:adc
 2965 1a82 C0F20003 		movt	r3, #:upper16:adc
 2966 1a86 5A6B     		ldr	r2, [r3, #52]
 2967 1a88 FB79     		ldrb	r3, [r7, #7]	@ zero_extendqisi2
 2968 1a8a 02FA03F3 		lsl	r3, r2, r3
 2969 1a8e 1846     		mov	r0, r3
 2970 1a90 FFF7FEFF 		bl	__aeabi_i2f
 2971 1a94 0346     		mov	r3, r0
 2972 1a96 1846     		mov	r0, r3
 2973 1a98 FFF7FEFF 		bl	__aeabi_f2d
 2974 1a9c 0246     		mov	r2, r0
 2975 1a9e 0B46     		mov	r3, r1
 2976 1aa0 1046     		mov	r0, r2
 2977 1aa2 1946     		mov	r1, r3
 2978 1aa4 98A3     		adr	r3, .L103+8
 2979 1aa6 D3E90023 		ldrd	r2, [r3]
 2980 1aaa FFF7FEFF 		bl	__aeabi_dmul
 2981 1aae 0246     		mov	r2, r0
 2982 1ab0 0B46     		mov	r3, r1
 2983 1ab2 1046     		mov	r0, r2
 2984 1ab4 1946     		mov	r1, r3
 2985 1ab6 96A3     		adr	r3, .L103+16
 2986 1ab8 D3E90023 		ldrd	r2, [r3]
 2987 1abc FFF7FEFF 		bl	__aeabi_ddiv
 2988 1ac0 0246     		mov	r2, r0
 2989 1ac2 0B46     		mov	r3, r1
 2990 1ac4 2046     		mov	r0, r4
 2991 1ac6 2946     		mov	r1, r5
 2992 1ac8 FFF7FEFF 		bl	__aeabi_dadd
 2993 1acc 0246     		mov	r2, r0
 2994 1ace 0B46     		mov	r3, r1
 2995 1ad0 1046     		mov	r0, r2
 2996 1ad2 1946     		mov	r1, r3
 2997 1ad4 FFF7FEFF 		bl	__aeabi_d2f
 2998 1ad8 0246     		mov	r2, r0
 2999 1ada 40F20003 		movw	r3, #:lower16:batt1_vol
 3000 1ade C0F20003 		movt	r3, #:upper16:batt1_vol
 3001 1ae2 1A60     		str	r2, [r3, #0]	@ float
 274:../Sources/Interrupts.c **** 		batt2_vol=0.99*batt2_vol+0.01*((float)(adc[6]<<mode)/13442-batt1_vol);//10646
 3002              		.loc 1 274 0
 3003 1ae4 40F20003 		movw	r3, #:lower16:batt2_vol
 3004 1ae8 C0F20003 		movt	r3, #:upper16:batt2_vol
 3005 1aec 1B68     		ldr	r3, [r3, #0]	@ float
 3006 1aee 1846     		mov	r0, r3
 3007 1af0 FFF7FEFF 		bl	__aeabi_f2d
 3008 1af4 0246     		mov	r2, r0
 3009 1af6 0B46     		mov	r3, r1
 3010 1af8 1046     		mov	r0, r2
 3011 1afa 1946     		mov	r1, r3
 3012 1afc 80A3     		adr	r3, .L103
 3013 1afe D3E90023 		ldrd	r2, [r3]
 3014 1b02 FFF7FEFF 		bl	__aeabi_dmul
 3015 1b06 0246     		mov	r2, r0
 3016 1b08 0B46     		mov	r3, r1
 3017 1b0a 1446     		mov	r4, r2
 3018 1b0c 1D46     		mov	r5, r3
 3019 1b0e 40F20003 		movw	r3, #:lower16:adc
 3020 1b12 C0F20003 		movt	r3, #:upper16:adc
 3021 1b16 9A69     		ldr	r2, [r3, #24]
 3022 1b18 FB79     		ldrb	r3, [r7, #7]	@ zero_extendqisi2
 3023 1b1a 02FA03F3 		lsl	r3, r2, r3
 3024 1b1e 1846     		mov	r0, r3
 3025 1b20 FFF7FEFF 		bl	__aeabi_i2f
 3026 1b24 0346     		mov	r3, r0
 3027 1b26 1846     		mov	r0, r3
 3028 1b28 4FF40061 		mov	r1, #2048
 3029 1b2c C4F25261 		movt	r1, 18002
 3030 1b30 FFF7FEFF 		bl	__aeabi_fdiv
 3031 1b34 0346     		mov	r3, r0
 3032 1b36 1A46     		mov	r2, r3
 3033 1b38 40F20003 		movw	r3, #:lower16:batt1_vol
 3034 1b3c C0F20003 		movt	r3, #:upper16:batt1_vol
 3035 1b40 1B68     		ldr	r3, [r3, #0]	@ float
 3036 1b42 1046     		mov	r0, r2
 3037 1b44 1946     		mov	r1, r3
 3038 1b46 FFF7FEFF 		bl	__aeabi_fsub
 3039 1b4a 0346     		mov	r3, r0
 3040 1b4c 1846     		mov	r0, r3
 3041 1b4e FFF7FEFF 		bl	__aeabi_f2d
 3042 1b52 0246     		mov	r2, r0
 3043 1b54 0B46     		mov	r3, r1
 3044 1b56 1046     		mov	r0, r2
 3045 1b58 1946     		mov	r1, r3
 3046 1b5a 6BA3     		adr	r3, .L103+8
 3047 1b5c D3E90023 		ldrd	r2, [r3]
 3048 1b60 FFF7FEFF 		bl	__aeabi_dmul
 3049 1b64 0246     		mov	r2, r0
 3050 1b66 0B46     		mov	r3, r1
 3051 1b68 2046     		mov	r0, r4
 3052 1b6a 2946     		mov	r1, r5
 3053 1b6c FFF7FEFF 		bl	__aeabi_dadd
 3054 1b70 0246     		mov	r2, r0
 3055 1b72 0B46     		mov	r3, r1
 3056 1b74 1046     		mov	r0, r2
 3057 1b76 1946     		mov	r1, r3
 3058 1b78 FFF7FEFF 		bl	__aeabi_d2f
 3059 1b7c 0246     		mov	r2, r0
 3060 1b7e 40F20003 		movw	r3, #:lower16:batt2_vol
 3061 1b82 C0F20003 		movt	r3, #:upper16:batt2_vol
 3062 1b86 1A60     		str	r2, [r3, #0]	@ float
 275:../Sources/Interrupts.c **** 		batt3_vol=0.99*batt3_vol+0.01*((float)(adc[7]<<mode)/7347-batt1_vol-batt2_vol);
 3063              		.loc 1 275 0
 3064 1b88 40F20003 		movw	r3, #:lower16:batt3_vol
 3065 1b8c C0F20003 		movt	r3, #:upper16:batt3_vol
 3066 1b90 1B68     		ldr	r3, [r3, #0]	@ float
 3067 1b92 1846     		mov	r0, r3
 3068 1b94 FFF7FEFF 		bl	__aeabi_f2d
 3069 1b98 0246     		mov	r2, r0
 3070 1b9a 0B46     		mov	r3, r1
 3071 1b9c 1046     		mov	r0, r2
 3072 1b9e 1946     		mov	r1, r3
 3073 1ba0 57A3     		adr	r3, .L103
 3074 1ba2 D3E90023 		ldrd	r2, [r3]
 3075 1ba6 FFF7FEFF 		bl	__aeabi_dmul
 3076 1baa 0246     		mov	r2, r0
 3077 1bac 0B46     		mov	r3, r1
 3078 1bae 1446     		mov	r4, r2
 3079 1bb0 1D46     		mov	r5, r3
 3080 1bb2 40F20003 		movw	r3, #:lower16:adc
 3081 1bb6 C0F20003 		movt	r3, #:upper16:adc
 3082 1bba DA69     		ldr	r2, [r3, #28]
 3083 1bbc FB79     		ldrb	r3, [r7, #7]	@ zero_extendqisi2
 3084 1bbe 02FA03F3 		lsl	r3, r2, r3
 3085 1bc2 1846     		mov	r0, r3
 3086 1bc4 FFF7FEFF 		bl	__aeabi_i2f
 3087 1bc8 0346     		mov	r3, r0
 3088 1bca 1846     		mov	r0, r3
 3089 1bcc 4FF41841 		mov	r1, #38912
 3090 1bd0 C4F2E551 		movt	r1, 17893
 3091 1bd4 FFF7FEFF 		bl	__aeabi_fdiv
 3092 1bd8 0346     		mov	r3, r0
 3093 1bda 1A46     		mov	r2, r3
 3094 1bdc 40F20003 		movw	r3, #:lower16:batt1_vol
 3095 1be0 C0F20003 		movt	r3, #:upper16:batt1_vol
 3096 1be4 1B68     		ldr	r3, [r3, #0]	@ float
 3097 1be6 1046     		mov	r0, r2
 3098 1be8 1946     		mov	r1, r3
 3099 1bea FFF7FEFF 		bl	__aeabi_fsub
 3100 1bee 0346     		mov	r3, r0
 3101 1bf0 1A46     		mov	r2, r3
 3102 1bf2 40F20003 		movw	r3, #:lower16:batt2_vol
 3103 1bf6 C0F20003 		movt	r3, #:upper16:batt2_vol
 3104 1bfa 1B68     		ldr	r3, [r3, #0]	@ float
 3105 1bfc 1046     		mov	r0, r2
 3106 1bfe 1946     		mov	r1, r3
 3107 1c00 FFF7FEFF 		bl	__aeabi_fsub
 3108 1c04 0346     		mov	r3, r0
 3109 1c06 1846     		mov	r0, r3
 3110 1c08 FFF7FEFF 		bl	__aeabi_f2d
 3111 1c0c 0246     		mov	r2, r0
 3112 1c0e 0B46     		mov	r3, r1
 3113 1c10 1046     		mov	r0, r2
 3114 1c12 1946     		mov	r1, r3
 3115 1c14 3CA3     		adr	r3, .L103+8
 3116 1c16 D3E90023 		ldrd	r2, [r3]
 3117 1c1a FFF7FEFF 		bl	__aeabi_dmul
 3118 1c1e 0246     		mov	r2, r0
 3119 1c20 0B46     		mov	r3, r1
 3120 1c22 2046     		mov	r0, r4
 3121 1c24 2946     		mov	r1, r5
 3122 1c26 FFF7FEFF 		bl	__aeabi_dadd
 3123 1c2a 0246     		mov	r2, r0
 3124 1c2c 0B46     		mov	r3, r1
 3125 1c2e 1046     		mov	r0, r2
 3126 1c30 1946     		mov	r1, r3
 3127 1c32 FFF7FEFF 		bl	__aeabi_d2f
 3128 1c36 0246     		mov	r2, r0
 3129 1c38 40F20003 		movw	r3, #:lower16:batt3_vol
 3130 1c3c C0F20003 		movt	r3, #:upper16:batt3_vol
 3131 1c40 1A60     		str	r2, [r3, #0]	@ float
 276:../Sources/Interrupts.c **** 		BATT_VOLT=batt1_vol+batt2_vol+batt3_vol;
 3132              		.loc 1 276 0
 3133 1c42 40F20003 		movw	r3, #:lower16:batt1_vol
 3134 1c46 C0F20003 		movt	r3, #:upper16:batt1_vol
 3135 1c4a 1A68     		ldr	r2, [r3, #0]	@ float
 3136 1c4c 40F20003 		movw	r3, #:lower16:batt2_vol
 3137 1c50 C0F20003 		movt	r3, #:upper16:batt2_vol
 3138 1c54 1B68     		ldr	r3, [r3, #0]	@ float
 3139 1c56 1046     		mov	r0, r2
 3140 1c58 1946     		mov	r1, r3
 3141 1c5a FFF7FEFF 		bl	__aeabi_fadd
 3142 1c5e 0346     		mov	r3, r0
 3143 1c60 1A46     		mov	r2, r3
 3144 1c62 40F20003 		movw	r3, #:lower16:batt3_vol
 3145 1c66 C0F20003 		movt	r3, #:upper16:batt3_vol
 3146 1c6a 1B68     		ldr	r3, [r3, #0]	@ float
 3147 1c6c 1046     		mov	r0, r2
 3148 1c6e 1946     		mov	r1, r3
 3149 1c70 FFF7FEFF 		bl	__aeabi_fadd
 3150 1c74 0346     		mov	r3, r0
 3151 1c76 1A46     		mov	r2, r3
 3152 1c78 40F20003 		movw	r3, #:lower16:BATT_VOLT
 3153 1c7c C0F20003 		movt	r3, #:upper16:BATT_VOLT
 3154 1c80 1A60     		str	r2, [r3, #0]	@ float
 277:../Sources/Interrupts.c **** 		if((batt1_vol<BATTERY_MINIMUM_VOLTAGE || batt2_vol<BATTERY_MINIMUM_VOLTAGE || batt3_vol<BATTERY_M
 3155              		.loc 1 277 0
 3156 1c82 40F20003 		movw	r3, #:lower16:batt1_vol
 3157 1c86 C0F20003 		movt	r3, #:upper16:batt1_vol
 3158 1c8a 1B68     		ldr	r3, [r3, #0]	@ float
 3159 1c8c 1846     		mov	r0, r3
 3160 1c8e FFF7FEFF 		bl	__aeabi_f2d
 3161 1c92 0246     		mov	r2, r0
 3162 1c94 0B46     		mov	r3, r1
 3163 1c96 1046     		mov	r0, r2
 3164 1c98 1946     		mov	r1, r3
 3165 1c9a 1FA3     		adr	r3, .L103+24
 3166 1c9c D3E90023 		ldrd	r2, [r3]
 3167 1ca0 FFF7FEFF 		bl	__aeabi_dcmplt
 3168 1ca4 0346     		mov	r3, r0
 3169 1ca6 002B     		cmp	r3, #0
 3170 1ca8 3AD1     		bne	.L100
 3171              		.loc 1 277 0 is_stmt 0 discriminator 2
 3172 1caa 40F20003 		movw	r3, #:lower16:batt2_vol
 3173 1cae C0F20003 		movt	r3, #:upper16:batt2_vol
 3174 1cb2 1B68     		ldr	r3, [r3, #0]	@ float
 3175 1cb4 1846     		mov	r0, r3
 3176 1cb6 FFF7FEFF 		bl	__aeabi_f2d
 3177 1cba 0246     		mov	r2, r0
 3178 1cbc 0B46     		mov	r3, r1
 3179 1cbe 1046     		mov	r0, r2
 3180 1cc0 1946     		mov	r1, r3
 3181 1cc2 15A3     		adr	r3, .L103+24
 3182 1cc4 D3E90023 		ldrd	r2, [r3]
 3183 1cc8 FFF7FEFF 		bl	__aeabi_dcmplt
 3184 1ccc 0346     		mov	r3, r0
 3185 1cce 002B     		cmp	r3, #0
 3186 1cd0 26D1     		bne	.L100
 3187              		.loc 1 277 0 discriminator 1
 3188 1cd2 40F20003 		movw	r3, #:lower16:batt3_vol
 3189 1cd6 C0F20003 		movt	r3, #:upper16:batt3_vol
 3190 1cda 1B68     		ldr	r3, [r3, #0]	@ float
 3191 1cdc 1846     		mov	r0, r3
 3192 1cde FFF7FEFF 		bl	__aeabi_f2d
 3193 1ce2 0246     		mov	r2, r0
 3194 1ce4 0B46     		mov	r3, r1
 3195 1ce6 1046     		mov	r0, r2
 3196 1ce8 1946     		mov	r1, r3
 3197 1cea 0BA3     		adr	r3, .L103+24
 3198 1cec D3E90023 		ldrd	r2, [r3]
 3199 1cf0 FFF7FEFF 		bl	__aeabi_dcmplt
 3200 1cf4 0346     		mov	r3, r0
 3201 1cf6 002B     		cmp	r3, #0
 3202 1cf8 21D0     		beq	.L101
 3203 1cfa 11E0     		b	.L104
 3204              	.L105:
 3205 1cfc AFF30080 		.align	3
 3206              	.L103:
 3207 1d00 AE47E17A 		.word	2061584302
 3208 1d04 14AEEF3F 		.word	1072672276
 3209 1d08 7B14AE47 		.word	1202590843
 3210 1d0c E17A843F 		.word	1065646817
 3211 1d10 00000000 		.word	0
 3212 1d14 00A7D540 		.word	1087743744
 3213 1d18 66666666 		.word	1717986918
 3214 1d1c 66660A40 		.word	1074423398
 3215              	.L104:
 3216              	.L100:
 3217 1d20 40F20003 		movw	r3, #:lower16:No
 3218 1d24 C0F20003 		movt	r3, #:upper16:No
 3219 1d28 1B68     		ldr	r3, [r3, #0]
 3220 1d2a B3F5FA6F 		cmp	r3, #2000
 3221 1d2e 06DD     		ble	.L101
 278:../Sources/Interrupts.c **** 			{
 279:../Sources/Interrupts.c **** 			LOW_BATT_FLAG=1;
 3222              		.loc 1 279 0 is_stmt 1
 3223 1d30 40F20003 		movw	r3, #:lower16:LOW_BATT_FLAG
 3224 1d34 C0F20003 		movt	r3, #:upper16:LOW_BATT_FLAG
 3225 1d38 4FF00102 		mov	r2, #1
 3226 1d3c 1A80     		strh	r2, [r3, #0]	@ movhi
 3227              	.L101:
 280:../Sources/Interrupts.c **** 			}
 281:../Sources/Interrupts.c **** 		disable_irq(INT_ADC0 - 16);
 3228              		.loc 1 281 0
 3229 1d3e 4FF03900 		mov	r0, #57
 3230 1d42 FFF7FEFF 		bl	disable_irq
 3231              	.L97:
 3232              	.LBE2:
 282:../Sources/Interrupts.c **** 		}
 283:../Sources/Interrupts.c **** #endif
 284:../Sources/Interrupts.c **** 	ADC0_SC1A=adc_register;	
 3233              		.loc 1 284 0
 3234 1d46 4FF43043 		mov	r3, #45056
 3235 1d4a C4F20303 		movt	r3, 16387
 3236 1d4e FA7B     		ldrb	r2, [r7, #15]	@ zero_extendqisi2
 3237 1d50 1A60     		str	r2, [r3, #0]
 285:../Sources/Interrupts.c **** }
 3238              		.loc 1 285 0
 3239 1d52 07F11007 		add	r7, r7, #16
 3240 1d56 BD46     		mov	sp, r7
 3241 1d58 B0BD     		pop	{r4, r5, r7, pc}
 3242              		.cfi_endproc
 3243              	.LFE8:
 3245 1d5a 00BF     		.align	2
 3246              		.global	ADC_DMA
 3247              		.thumb
 3248              		.thumb_func
 3250              	ADC_DMA:
 3251              	.LFB9:
 286:../Sources/Interrupts.c **** 
 287:../Sources/Interrupts.c **** void ADC_DMA()
 288:../Sources/Interrupts.c **** {
 3252              		.loc 1 288 0
 3253              		.cfi_startproc
 3254              		@ args = 0, pretend = 0, frame = 0
 3255              		@ frame_needed = 1, uses_anonymous_args = 0
 3256              		@ link register save eliminated.
 3257 1d5c 80B4     		push	{r7}
 3258              	.LCFI24:
 3259              		.cfi_def_cfa_offset 4
 3260              		.cfi_offset 7, -4
 3261 1d5e 00AF     		add	r7, sp, #0
 3262              	.LCFI25:
 3263              		.cfi_def_cfa_register 7
 289:../Sources/Interrupts.c **** 	
 290:../Sources/Interrupts.c **** }
 3264              		.loc 1 290 0
 3265 1d60 BD46     		mov	sp, r7
 3266 1d62 80BC     		pop	{r7}
 3267 1d64 7047     		bx	lr
 3268              		.cfi_endproc
 3269              	.LFE9:
 3271              		.bss
 3272              	MUXSEL_FLAG.7516:
 3273 0040 00       		.space	1
 3274 0041 000000   		.text
 3275              	.Letext0:
 3276              		.file 2 "c:\\freescale\\cw mcu v10.6\\cross_tools\\arm-none-eabi-gcc-4_7_3\\bin\\../lib/gcc/arm-no
 3277              		.file 3 "E:/saj\341t/quadcopter/quadcopter v2.0/Project_Headers/processor_specific_functions\\K40\
 3278              		.file 4 "E:/saj\341t/quadcopter/quadcopter v2.0/Sources/ff10b/src/integer.h"
 3279              		.file 5 "E:/saj\341t/quadcopter/quadcopter v2.0/Sources/ff10b/src/ff.h"
 3280              		.file 6 "E:/saj\341t/quadcopter/quadcopter v2.0/Project_Headers/processor_specific_functions/K40/i
 3281              		.file 7 "E:/saj\341t/quadcopter/quadcopter v2.0/Project_Headers/processor_specific_functions/K40/d
 3282              		.file 8 "E:/saj\341t/quadcopter/quadcopter v2.0/Project_Headers/SDcard.h"
 3283              		.file 9 "E:/saj\341t/quadcopter/quadcopter v2.0/Project_Headers/MPU6050.h"
 3284              		.file 10 "E:/saj\341t/quadcopter/quadcopter v2.0/Project_Headers/BMP180.h"