   1              		.syntax unified
   2              		.cpu cortex-m4
   3              		.fpu softvfp
   4              		.eabi_attribute 20, 1
   5              		.eabi_attribute 21, 1
   6              		.eabi_attribute 23, 3
   7              		.eabi_attribute 24, 1
   8              		.eabi_attribute 25, 1
   9              		.eabi_attribute 26, 1
  10              		.eabi_attribute 30, 6
  11              		.eabi_attribute 34, 1
  12              		.eabi_attribute 18, 4
  13              		.thumb
  14              		.file	"i2c.c"
  15              		.text
  16              	.Ltext0:
  17              		.cfi_sections	.debug_frame
  18              		.comm	I2C_Variable,4,4
  19              		.comm	uart_data,1,1
  20              		.comm	adc_data,60,4
  21              		.comm	Kp,4,4
  22              		.comm	Kd,4,4
  23              		.comm	Ki,4,4
  24              		.comm	zKp,4,4
  25              		.comm	zKd,4,4
  26              		.comm	basepower,4,4
  27              		.comm	setpoint_x,4,4
  28              		.comm	setpoint_y,4,4
  29              		.comm	setpoint_z,4,4
  30              		.comm	setpoint_alt,4,4
  31              		.comm	batt1_vol,4,4
  32              		.comm	batt2_vol,4,4
  33              		.comm	batt3_vol,4,4
  34              		.comm	BATT_VOLT,4,4
  35              		.comm	FatFs,560,4
  36              		.comm	fil,548,4
  37              		.comm	GYRO_XOUT_OFFSET,2,2
  38              		.comm	GYRO_YOUT_OFFSET,2,2
  39              		.comm	GYRO_ZOUT_OFFSET,2,2
  40              		.comm	ACCEL_XOUT_OFFSET,2,2
  41              		.comm	ACCEL_YOUT_OFFSET,2,2
  42              		.comm	ACCEL_ZOUT_OFFSET,2,2
  43              		.comm	GYRO_XANGLE,4,4
  44              		.comm	GYRO_YANGLE,4,4
  45              		.comm	GYRO_ZANGLE,4,4
  46              		.comm	GYRO_XOUT,2,2
  47              		.comm	GYRO_YOUT,2,2
  48              		.comm	GYRO_ZOUT,2,2
  49              		.comm	ACCEL_XOUT,2,2
  50              		.comm	ACCEL_YOUT,2,2
  51              		.comm	ACCEL_ZOUT,2,2
  52              		.comm	ACCEL_Gx,4,4
  53              		.comm	ACCEL_Gy,4,4
  54              		.comm	ACCEL_Gz,4,4
  55              		.comm	ACCEL,8,8
  56              		.comm	GYRO_XRATE,4,4
  57              		.comm	GYRO_YRATE,4,4
  58              		.comm	GYRO_ZRATE,4,4
  59              		.comm	ACCEL_XANGLE,4,4
  60              		.comm	ACCEL_YANGLE,4,4
  61              		.comm	gyro_xsensitivity,4,4
  62              		.comm	gyro_ysensitivity,4,4
  63              		.comm	gyro_zsensitivity,4,4
  64              		.comm	a,4,4
  65              		.comm	dt,4,4
  66              		.comm	COMPLEMENTARY_XANGLE,4,4
  67              		.comm	COMPLEMENTARY_YANGLE,4,4
  68              		.comm	filter_xterm,12,4
  69              		.comm	filter_yterm,12,4
  70              		.comm	XANGLE_OFFSET,4,4
  71              		.comm	YANGLE_OFFSET,4,4
  72              		.comm	TEMP,4,4
  73              		.comm	timeConstant,4,4
  74              		.comm	MPU_6050_buffer,14,4
  75              		.comm	AC1,2,2
  76              		.comm	AC2,2,2
  77              		.comm	AC3,2,2
  78              		.comm	B1,2,2
  79              		.comm	B2,2,2
  80              		.comm	MB,2,2
  81              		.comm	MC,2,2
  82              		.comm	MD,2,2
  83              		.comm	AC4,2,2
  84              		.comm	AC5,2,2
  85              		.comm	AC6,2,2
  86              		.comm	T,4,4
  87              		.comm	absolute_altittude,4,4
  88              		.comm	start_altittude,4,4
  89              		.comm	relative_altittude,4,4
  90              		.comm	P,4,4
  91              		.align	2
  92              		.global	Init_I2C
  93              		.thumb
  94              		.thumb_func
  96              	Init_I2C:
  97              	.LFB0:
  98              		.file 1 "../Sources/processor_specific_functions/K40/i2c.c"
   1:../Sources/processor_specific_functions/K40/i2c.c **** //#include "derivative.h"
   2:../Sources/processor_specific_functions/K40/i2c.c **** //#include "processor_specific_functions/i2c.h"
   3:../Sources/processor_specific_functions/K40/i2c.c **** #include "init.h"
   4:../Sources/processor_specific_functions/K40/i2c.c **** 
   5:../Sources/processor_specific_functions/K40/i2c.c **** int I2C_Variable;
   6:../Sources/processor_specific_functions/K40/i2c.c **** 
   7:../Sources/processor_specific_functions/K40/i2c.c **** void Init_I2C(void)
   8:../Sources/processor_specific_functions/K40/i2c.c **** {
  99              		.loc 1 8 0
 100              		.cfi_startproc
 101              		@ args = 0, pretend = 0, frame = 0
 102              		@ frame_needed = 1, uses_anonymous_args = 0
 103              		@ link register save eliminated.
 104 0000 80B4     		push	{r7}
 105              	.LCFI0:
 106              		.cfi_def_cfa_offset 4
 107              		.cfi_offset 7, -4
 108 0002 00AF     		add	r7, sp, #0
 109              	.LCFI1:
 110              		.cfi_def_cfa_register 7
   9:../Sources/processor_specific_functions/K40/i2c.c ****   SIM_SCGC5 |= SIM_SCGC5_PORTE_MASK;
 111              		.loc 1 9 0
 112 0004 4FF4E043 		mov	r3, #28672
 113 0008 C4F20403 		movt	r3, 16388
 114 000c 4FF4E042 		mov	r2, #28672
 115 0010 C4F20402 		movt	r2, 16388
 116 0014 02F58152 		add	r2, r2, #4128
 117 0018 02F11802 		add	r2, r2, #24
 118 001c 1268     		ldr	r2, [r2, #0]
 119 001e 42F40052 		orr	r2, r2, #8192
 120 0022 03F58153 		add	r3, r3, #4128
 121 0026 03F11803 		add	r3, r3, #24
 122 002a 1A60     		str	r2, [r3, #0]
  10:../Sources/processor_specific_functions/K40/i2c.c ****   SIM_SCGC4 |= SIM_SCGC4_I2C1_MASK;
 123              		.loc 1 10 0
 124 002c 4FF4E043 		mov	r3, #28672
 125 0030 C4F20403 		movt	r3, 16388
 126 0034 4FF4E042 		mov	r2, #28672
 127 0038 C4F20402 		movt	r2, 16388
 128 003c 02F58152 		add	r2, r2, #4128
 129 0040 02F11402 		add	r2, r2, #20
 130 0044 1268     		ldr	r2, [r2, #0]
 131 0046 42F08002 		orr	r2, r2, #128
 132 004a 03F58153 		add	r3, r3, #4128
 133 004e 03F11403 		add	r3, r3, #20
 134 0052 1A60     		str	r2, [r3, #0]
  11:../Sources/processor_specific_functions/K40/i2c.c ****   PORTE_PCR0 = PORT_PCR_MUX(2);		//I2C SDA
 135              		.loc 1 11 0
 136 0054 4FF45043 		mov	r3, #53248
 137 0058 C4F20403 		movt	r3, 16388
 138 005c 4FF40072 		mov	r2, #512
 139 0060 1A60     		str	r2, [r3, #0]
  12:../Sources/processor_specific_functions/K40/i2c.c ****   PORTE_PCR1 = PORT_PCR_MUX(2);		//I2C SCL
 140              		.loc 1 12 0
 141 0062 4FF45043 		mov	r3, #53248
 142 0066 C4F20403 		movt	r3, 16388
 143 006a 4FF40072 		mov	r2, #512
 144 006e 5A60     		str	r2, [r3, #4]
  13:../Sources/processor_specific_functions/K40/i2c.c ****   
  14:../Sources/processor_specific_functions/K40/i2c.c **** /*  PORTB_PCR2 |= PORT_PCR_MUX(1);
  15:../Sources/processor_specific_functions/K40/i2c.c ****   PORTB_PCR3 |= PORT_PCR_MUX(1);
  16:../Sources/processor_specific_functions/K40/i2c.c ****   GPIOB_PDDR |= 0b1100;
  17:../Sources/processor_specific_functions/K40/i2c.c ****   GPIOB_PSOR |= 0b1000;
  18:../Sources/processor_specific_functions/K40/i2c.c ****   */
  19:../Sources/processor_specific_functions/K40/i2c.c ****   I2C1_F  = 0x00;
 145              		.loc 1 19 0
 146 0070 4FF4E043 		mov	r3, #28672
 147 0074 C4F20603 		movt	r3, 16390
 148 0078 4FF00002 		mov	r2, #0
 149 007c 5A70     		strb	r2, [r3, #1]
  20:../Sources/processor_specific_functions/K40/i2c.c ****   I2C1_C1 = I2C_C1_IICEN_MASK;
 150              		.loc 1 20 0
 151 007e 4FF4E043 		mov	r3, #28672
 152 0082 C4F20603 		movt	r3, 16390
 153 0086 4FF08002 		mov	r2, #128
 154 008a 9A70     		strb	r2, [r3, #2]
  21:../Sources/processor_specific_functions/K40/i2c.c **** }
 155              		.loc 1 21 0
 156 008c BD46     		mov	sp, r7
 157 008e 80BC     		pop	{r7}
 158 0090 7047     		bx	lr
 159              		.cfi_endproc
 160              	.LFE0:
 162 0092 00BF     		.align	2
 163              		.global	IIC_StartTransmission
 164              		.thumb
 165              		.thumb_func
 167              	IIC_StartTransmission:
 168              	.LFB1:
  22:../Sources/processor_specific_functions/K40/i2c.c **** 
  23:../Sources/processor_specific_functions/K40/i2c.c **** /* Inicia Transmissao I2C
  24:../Sources/processor_specific_functions/K40/i2c.c ****  * SlaveID: endereco do slave
  25:../Sources/processor_specific_functions/K40/i2c.c ****  * "Mode" define modo Read (1) ou Write (0)
  26:../Sources/processor_specific_functions/K40/i2c.c ****  */
  27:../Sources/processor_specific_functions/K40/i2c.c **** void IIC_StartTransmission (char SlaveID, char Mode)
  28:../Sources/processor_specific_functions/K40/i2c.c **** {
 169              		.loc 1 28 0
 170              		.cfi_startproc
 171              		@ args = 0, pretend = 0, frame = 8
 172              		@ frame_needed = 1, uses_anonymous_args = 0
 173              		@ link register save eliminated.
 174 0094 80B4     		push	{r7}
 175              	.LCFI2:
 176              		.cfi_def_cfa_offset 4
 177              		.cfi_offset 7, -4
 178 0096 83B0     		sub	sp, sp, #12
 179              	.LCFI3:
 180              		.cfi_def_cfa_offset 16
 181 0098 00AF     		add	r7, sp, #0
 182              	.LCFI4:
 183              		.cfi_def_cfa_register 7
 184 009a 0246     		mov	r2, r0
 185 009c 0B46     		mov	r3, r1
 186 009e FA71     		strb	r2, [r7, #7]
 187 00a0 BB71     		strb	r3, [r7, #6]
  29:../Sources/processor_specific_functions/K40/i2c.c ****   SlaveID = SlaveID << 1;
 188              		.loc 1 29 0
 189 00a2 FB79     		ldrb	r3, [r7, #7]
 190 00a4 4FEA4303 		lsl	r3, r3, #1
 191 00a8 FB71     		strb	r3, [r7, #7]
  30:../Sources/processor_specific_functions/K40/i2c.c ****   SlaveID |= (Mode & 0x01);
 192              		.loc 1 30 0
 193 00aa BB79     		ldrb	r3, [r7, #6]	@ zero_extendqisi2
 194 00ac 03F00103 		and	r3, r3, #1
 195 00b0 DAB2     		uxtb	r2, r3
 196 00b2 FB79     		ldrb	r3, [r7, #7]	@ zero_extendqisi2
 197 00b4 1343     		orrs	r3, r3, r2
 198 00b6 DBB2     		uxtb	r3, r3
 199 00b8 FB71     		strb	r3, [r7, #7]
  31:../Sources/processor_specific_functions/K40/i2c.c ****   i2c_Start();
 200              		.loc 1 31 0
 201 00ba 4FF4E043 		mov	r3, #28672
 202 00be C4F20603 		movt	r3, 16390
 203 00c2 4FF4E042 		mov	r2, #28672
 204 00c6 C4F20602 		movt	r2, 16390
 205 00ca 9278     		ldrb	r2, [r2, #2]
 206 00cc D2B2     		uxtb	r2, r2
 207 00ce 42F01002 		orr	r2, r2, #16
 208 00d2 D2B2     		uxtb	r2, r2
 209 00d4 9A70     		strb	r2, [r3, #2]
 210 00d6 4FF4E043 		mov	r3, #28672
 211 00da C4F20603 		movt	r3, 16390
 212 00de 4FF4E042 		mov	r2, #28672
 213 00e2 C4F20602 		movt	r2, 16390
 214 00e6 9278     		ldrb	r2, [r2, #2]
 215 00e8 D2B2     		uxtb	r2, r2
 216 00ea 42F02002 		orr	r2, r2, #32
 217 00ee D2B2     		uxtb	r2, r2
 218 00f0 9A70     		strb	r2, [r3, #2]
  32:../Sources/processor_specific_functions/K40/i2c.c ****   i2c_write_byte(SlaveID);
 219              		.loc 1 32 0
 220 00f2 4FF4E043 		mov	r3, #28672
 221 00f6 C4F20603 		movt	r3, 16390
 222 00fa FA79     		ldrb	r2, [r7, #7]
 223 00fc 1A71     		strb	r2, [r3, #4]
  33:../Sources/processor_specific_functions/K40/i2c.c **** }
 224              		.loc 1 33 0
 225 00fe 07F10C07 		add	r7, r7, #12
 226 0102 BD46     		mov	sp, r7
 227 0104 80BC     		pop	{r7}
 228 0106 7047     		bx	lr
 229              		.cfi_endproc
 230              	.LFE1:
 232              		.align	2
 233              		.global	Pause
 234              		.thumb
 235              		.thumb_func
 237              	Pause:
 238              	.LFB2:
  34:../Sources/processor_specific_functions/K40/i2c.c **** 
  35:../Sources/processor_specific_functions/K40/i2c.c **** void Pause(void){
 239              		.loc 1 35 0
 240              		.cfi_startproc
 241              		@ args = 0, pretend = 0, frame = 8
 242              		@ frame_needed = 1, uses_anonymous_args = 0
 243              		@ link register save eliminated.
 244 0108 80B4     		push	{r7}
 245              	.LCFI5:
 246              		.cfi_def_cfa_offset 4
 247              		.cfi_offset 7, -4
 248 010a 83B0     		sub	sp, sp, #12
 249              	.LCFI6:
 250              		.cfi_def_cfa_offset 16
 251 010c 00AF     		add	r7, sp, #0
 252              	.LCFI7:
 253              		.cfi_def_cfa_register 7
  36:../Sources/processor_specific_functions/K40/i2c.c ****     int n;
  37:../Sources/processor_specific_functions/K40/i2c.c ****     for(n=1;n<50;n++) {
 254              		.loc 1 37 0
 255 010e 4FF00103 		mov	r3, #1
 256 0112 7B60     		str	r3, [r7, #4]
 257 0114 04E0     		b	.L4
 258              	.L5:
  38:../Sources/processor_specific_functions/K40/i2c.c ****       asm("nop");
 259              		.loc 1 38 0 discriminator 2
 260              	@ 38 "../Sources/processor_specific_functions/K40/i2c.c" 1
 261 0116 00BF     		nop
 262              	@ 0 "" 2
  37:../Sources/processor_specific_functions/K40/i2c.c ****     for(n=1;n<50;n++) {
 263              		.loc 1 37 0 discriminator 2
 264              		.thumb
 265 0118 7B68     		ldr	r3, [r7, #4]
 266 011a 03F10103 		add	r3, r3, #1
 267 011e 7B60     		str	r3, [r7, #4]
 268              	.L4:
  37:../Sources/processor_specific_functions/K40/i2c.c ****     for(n=1;n<50;n++) {
 269              		.loc 1 37 0 is_stmt 0 discriminator 1
 270 0120 7B68     		ldr	r3, [r7, #4]
 271 0122 312B     		cmp	r3, #49
 272 0124 F7DD     		ble	.L5
  39:../Sources/processor_specific_functions/K40/i2c.c ****     }
  40:../Sources/processor_specific_functions/K40/i2c.c **** }
 273              		.loc 1 40 0 is_stmt 1
 274 0126 07F10C07 		add	r7, r7, #12
 275 012a BD46     		mov	sp, r7
 276 012c 80BC     		pop	{r7}
 277 012e 7047     		bx	lr
 278              		.cfi_endproc
 279              	.LFE2:
 281              		.align	2
 282              		.global	I2CReadRegister
 283              		.thumb
 284              		.thumb_func
 286              	I2CReadRegister:
 287              	.LFB3:
  41:../Sources/processor_specific_functions/K40/i2c.c **** 
  42:../Sources/processor_specific_functions/K40/i2c.c **** /* Le um registrador do slave I2C
  43:../Sources/processor_specific_functions/K40/i2c.c ****  * SlaveID: endereco do slave
  44:../Sources/processor_specific_functions/K40/i2c.c ****  * RegisterAddress: endereco do registrador interno do slave
  45:../Sources/processor_specific_functions/K40/i2c.c ****  * Retorna o valor do registrador
  46:../Sources/processor_specific_functions/K40/i2c.c ****  */
  47:../Sources/processor_specific_functions/K40/i2c.c **** char I2CReadRegister(char SlaveID, char RegisterAddress)
  48:../Sources/processor_specific_functions/K40/i2c.c **** {
 288              		.loc 1 48 0
 289              		.cfi_startproc
 290              		@ args = 0, pretend = 0, frame = 16
 291              		@ frame_needed = 1, uses_anonymous_args = 0
 292 0130 80B5     		push	{r7, lr}
 293              	.LCFI8:
 294              		.cfi_def_cfa_offset 8
 295              		.cfi_offset 7, -8
 296              		.cfi_offset 14, -4
 297 0132 84B0     		sub	sp, sp, #16
 298              	.LCFI9:
 299              		.cfi_def_cfa_offset 24
 300 0134 00AF     		add	r7, sp, #0
 301              	.LCFI10:
 302              		.cfi_def_cfa_register 7
 303 0136 0246     		mov	r2, r0
 304 0138 0B46     		mov	r3, r1
 305 013a FA71     		strb	r2, [r7, #7]
 306 013c BB71     		strb	r3, [r7, #6]
  49:../Sources/processor_specific_functions/K40/i2c.c ****   char result;
  50:../Sources/processor_specific_functions/K40/i2c.c **** 
  51:../Sources/processor_specific_functions/K40/i2c.c ****   IIC_StartTransmission(SlaveID,MWSR);
 307              		.loc 1 51 0
 308 013e FB79     		ldrb	r3, [r7, #7]	@ zero_extendqisi2
 309 0140 1846     		mov	r0, r3
 310 0142 4FF00001 		mov	r1, #0
 311 0146 FFF7FEFF 		bl	IIC_StartTransmission
  52:../Sources/processor_specific_functions/K40/i2c.c ****   i2c_Wait();
 312              		.loc 1 52 0
 313 014a 40F20003 		movw	r3, #:lower16:I2C_Variable
 314 014e C0F20003 		movt	r3, #:upper16:I2C_Variable
 315 0152 4FF00002 		mov	r2, #0
 316 0156 1A60     		str	r2, [r3, #0]
 317 0158 0BE0     		b	.L7
 318              	.L9:
 319              		.loc 1 52 0 is_stmt 0 discriminator 4
 320 015a 40F20003 		movw	r3, #:lower16:I2C_Variable
 321 015e C0F20003 		movt	r3, #:upper16:I2C_Variable
 322 0162 1B68     		ldr	r3, [r3, #0]
 323 0164 03F10102 		add	r2, r3, #1
 324 0168 40F20003 		movw	r3, #:lower16:I2C_Variable
 325 016c C0F20003 		movt	r3, #:upper16:I2C_Variable
 326 0170 1A60     		str	r2, [r3, #0]
 327              	.L7:
 328              		.loc 1 52 0 discriminator 1
 329 0172 4FF4E043 		mov	r3, #28672
 330 0176 C4F20603 		movt	r3, 16390
 331 017a DB78     		ldrb	r3, [r3, #3]
 332 017c DBB2     		uxtb	r3, r3
 333 017e 03F00203 		and	r3, r3, #2
 334 0182 002B     		cmp	r3, #0
 335 0184 08D1     		bne	.L8
 336              		.loc 1 52 0 discriminator 2
 337 0186 40F20003 		movw	r3, #:lower16:I2C_Variable
 338 018a C0F20003 		movt	r3, #:upper16:I2C_Variable
 339 018e 1A68     		ldr	r2, [r3, #0]
 340 0190 40F2CF73 		movw	r3, #1999
 341 0194 9A42     		cmp	r2, r3
 342 0196 E0DD     		ble	.L9
 343              	.L8:
 344              		.loc 1 52 0 discriminator 3
 345 0198 4FF4E043 		mov	r3, #28672
 346 019c C4F20603 		movt	r3, 16390
 347 01a0 4FF4E042 		mov	r2, #28672
 348 01a4 C4F20602 		movt	r2, 16390
 349 01a8 D278     		ldrb	r2, [r2, #3]
 350 01aa D2B2     		uxtb	r2, r2
 351 01ac 42F00202 		orr	r2, r2, #2
 352 01b0 D2B2     		uxtb	r2, r2
 353 01b2 DA70     		strb	r2, [r3, #3]
  53:../Sources/processor_specific_functions/K40/i2c.c ****   i2c_write_byte(RegisterAddress); 
 354              		.loc 1 53 0 is_stmt 1 discriminator 3
 355 01b4 4FF4E043 		mov	r3, #28672
 356 01b8 C4F20603 		movt	r3, 16390
 357 01bc BA79     		ldrb	r2, [r7, #6]
 358 01be 1A71     		strb	r2, [r3, #4]
  54:../Sources/processor_specific_functions/K40/i2c.c ****   i2c_Wait();
 359              		.loc 1 54 0 discriminator 3
 360 01c0 40F20003 		movw	r3, #:lower16:I2C_Variable
 361 01c4 C0F20003 		movt	r3, #:upper16:I2C_Variable
 362 01c8 4FF00002 		mov	r2, #0
 363 01cc 1A60     		str	r2, [r3, #0]
 364 01ce 0BE0     		b	.L10
 365              	.L12:
 366              		.loc 1 54 0 is_stmt 0 discriminator 4
 367 01d0 40F20003 		movw	r3, #:lower16:I2C_Variable
 368 01d4 C0F20003 		movt	r3, #:upper16:I2C_Variable
 369 01d8 1B68     		ldr	r3, [r3, #0]
 370 01da 03F10102 		add	r2, r3, #1
 371 01de 40F20003 		movw	r3, #:lower16:I2C_Variable
 372 01e2 C0F20003 		movt	r3, #:upper16:I2C_Variable
 373 01e6 1A60     		str	r2, [r3, #0]
 374              	.L10:
 375              		.loc 1 54 0 discriminator 1
 376 01e8 4FF4E043 		mov	r3, #28672
 377 01ec C4F20603 		movt	r3, 16390
 378 01f0 DB78     		ldrb	r3, [r3, #3]
 379 01f2 DBB2     		uxtb	r3, r3
 380 01f4 03F00203 		and	r3, r3, #2
 381 01f8 002B     		cmp	r3, #0
 382 01fa 08D1     		bne	.L11
 383              		.loc 1 54 0 discriminator 2
 384 01fc 40F20003 		movw	r3, #:lower16:I2C_Variable
 385 0200 C0F20003 		movt	r3, #:upper16:I2C_Variable
 386 0204 1A68     		ldr	r2, [r3, #0]
 387 0206 40F2CF73 		movw	r3, #1999
 388 020a 9A42     		cmp	r2, r3
 389 020c E0DD     		ble	.L12
 390              	.L11:
 391              		.loc 1 54 0 discriminator 3
 392 020e 4FF4E043 		mov	r3, #28672
 393 0212 C4F20603 		movt	r3, 16390
 394 0216 4FF4E042 		mov	r2, #28672
 395 021a C4F20602 		movt	r2, 16390
 396 021e D278     		ldrb	r2, [r2, #3]
 397 0220 D2B2     		uxtb	r2, r2
 398 0222 42F00202 		orr	r2, r2, #2
 399 0226 D2B2     		uxtb	r2, r2
 400 0228 DA70     		strb	r2, [r3, #3]
  55:../Sources/processor_specific_functions/K40/i2c.c ****   i2c_RepeatedStart();
 401              		.loc 1 55 0 is_stmt 1 discriminator 3
 402 022a 4FF4E043 		mov	r3, #28672
 403 022e C4F20603 		movt	r3, 16390
 404 0232 4FF4E042 		mov	r2, #28672
 405 0236 C4F20602 		movt	r2, 16390
 406 023a 9278     		ldrb	r2, [r2, #2]
 407 023c D2B2     		uxtb	r2, r2
 408 023e 42F00402 		orr	r2, r2, #4
 409 0242 D2B2     		uxtb	r2, r2
 410 0244 9A70     		strb	r2, [r3, #2]
  56:../Sources/processor_specific_functions/K40/i2c.c ****   i2c_write_byte((SlaveID << 1) | 0x01);
 411              		.loc 1 56 0 discriminator 3
 412 0246 4FF4E043 		mov	r3, #28672
 413 024a C4F20603 		movt	r3, 16390
 414 024e FA79     		ldrb	r2, [r7, #7]	@ zero_extendqisi2
 415 0250 4FEA4202 		lsl	r2, r2, #1
 416 0254 D2B2     		uxtb	r2, r2
 417 0256 42F00102 		orr	r2, r2, #1
 418 025a D2B2     		uxtb	r2, r2
 419 025c D2B2     		uxtb	r2, r2
 420 025e 1A71     		strb	r2, [r3, #4]
  57:../Sources/processor_specific_functions/K40/i2c.c ****   i2c_Wait();
 421              		.loc 1 57 0 discriminator 3
 422 0260 40F20003 		movw	r3, #:lower16:I2C_Variable
 423 0264 C0F20003 		movt	r3, #:upper16:I2C_Variable
 424 0268 4FF00002 		mov	r2, #0
 425 026c 1A60     		str	r2, [r3, #0]
 426 026e 0BE0     		b	.L13
 427              	.L15:
 428              		.loc 1 57 0 is_stmt 0 discriminator 4
 429 0270 40F20003 		movw	r3, #:lower16:I2C_Variable
 430 0274 C0F20003 		movt	r3, #:upper16:I2C_Variable
 431 0278 1B68     		ldr	r3, [r3, #0]
 432 027a 03F10102 		add	r2, r3, #1
 433 027e 40F20003 		movw	r3, #:lower16:I2C_Variable
 434 0282 C0F20003 		movt	r3, #:upper16:I2C_Variable
 435 0286 1A60     		str	r2, [r3, #0]
 436              	.L13:
 437              		.loc 1 57 0 discriminator 1
 438 0288 4FF4E043 		mov	r3, #28672
 439 028c C4F20603 		movt	r3, 16390
 440 0290 DB78     		ldrb	r3, [r3, #3]
 441 0292 DBB2     		uxtb	r3, r3
 442 0294 03F00203 		and	r3, r3, #2
 443 0298 002B     		cmp	r3, #0
 444 029a 08D1     		bne	.L14
 445              		.loc 1 57 0 discriminator 2
 446 029c 40F20003 		movw	r3, #:lower16:I2C_Variable
 447 02a0 C0F20003 		movt	r3, #:upper16:I2C_Variable
 448 02a4 1A68     		ldr	r2, [r3, #0]
 449 02a6 40F2CF73 		movw	r3, #1999
 450 02aa 9A42     		cmp	r2, r3
 451 02ac E0DD     		ble	.L15
 452              	.L14:
 453              		.loc 1 57 0 discriminator 3
 454 02ae 4FF4E043 		mov	r3, #28672
 455 02b2 C4F20603 		movt	r3, 16390
 456 02b6 4FF4E042 		mov	r2, #28672
 457 02ba C4F20602 		movt	r2, 16390
 458 02be D278     		ldrb	r2, [r2, #3]
 459 02c0 D2B2     		uxtb	r2, r2
 460 02c2 42F00202 		orr	r2, r2, #2
 461 02c6 D2B2     		uxtb	r2, r2
 462 02c8 DA70     		strb	r2, [r3, #3]
  58:../Sources/processor_specific_functions/K40/i2c.c ****   i2c_EnterRxMode();
 463              		.loc 1 58 0 is_stmt 1 discriminator 3
 464 02ca 4FF4E043 		mov	r3, #28672
 465 02ce C4F20603 		movt	r3, 16390
 466 02d2 4FF4E042 		mov	r2, #28672
 467 02d6 C4F20602 		movt	r2, 16390
 468 02da 9278     		ldrb	r2, [r2, #2]
 469 02dc D2B2     		uxtb	r2, r2
 470 02de 22F01002 		bic	r2, r2, #16
 471 02e2 D2B2     		uxtb	r2, r2
 472 02e4 9A70     		strb	r2, [r3, #2]
  59:../Sources/processor_specific_functions/K40/i2c.c ****   i2c_DisableAck(); // Desabilita ACK por ser o penultimo byte a ler
 473              		.loc 1 59 0 discriminator 3
 474 02e6 4FF4E043 		mov	r3, #28672
 475 02ea C4F20603 		movt	r3, 16390
 476 02ee 4FF4E042 		mov	r2, #28672
 477 02f2 C4F20602 		movt	r2, 16390
 478 02f6 9278     		ldrb	r2, [r2, #2]
 479 02f8 D2B2     		uxtb	r2, r2
 480 02fa 42F00802 		orr	r2, r2, #8
 481 02fe D2B2     		uxtb	r2, r2
 482 0300 9A70     		strb	r2, [r3, #2]
  60:../Sources/processor_specific_functions/K40/i2c.c ****   result = I2C1_D ; // Dummy read
 483              		.loc 1 60 0 discriminator 3
 484 0302 4FF4E043 		mov	r3, #28672
 485 0306 C4F20603 		movt	r3, 16390
 486 030a 1B79     		ldrb	r3, [r3, #4]
 487 030c FB73     		strb	r3, [r7, #15]
  61:../Sources/processor_specific_functions/K40/i2c.c ****   i2c_Wait();
 488              		.loc 1 61 0 discriminator 3
 489 030e 40F20003 		movw	r3, #:lower16:I2C_Variable
 490 0312 C0F20003 		movt	r3, #:upper16:I2C_Variable
 491 0316 4FF00002 		mov	r2, #0
 492 031a 1A60     		str	r2, [r3, #0]
 493 031c 0BE0     		b	.L16
 494              	.L18:
 495              		.loc 1 61 0 is_stmt 0 discriminator 4
 496 031e 40F20003 		movw	r3, #:lower16:I2C_Variable
 497 0322 C0F20003 		movt	r3, #:upper16:I2C_Variable
 498 0326 1B68     		ldr	r3, [r3, #0]
 499 0328 03F10102 		add	r2, r3, #1
 500 032c 40F20003 		movw	r3, #:lower16:I2C_Variable
 501 0330 C0F20003 		movt	r3, #:upper16:I2C_Variable
 502 0334 1A60     		str	r2, [r3, #0]
 503              	.L16:
 504              		.loc 1 61 0 discriminator 1
 505 0336 4FF4E043 		mov	r3, #28672
 506 033a C4F20603 		movt	r3, 16390
 507 033e DB78     		ldrb	r3, [r3, #3]
 508 0340 DBB2     		uxtb	r3, r3
 509 0342 03F00203 		and	r3, r3, #2
 510 0346 002B     		cmp	r3, #0
 511 0348 08D1     		bne	.L17
 512              		.loc 1 61 0 discriminator 2
 513 034a 40F20003 		movw	r3, #:lower16:I2C_Variable
 514 034e C0F20003 		movt	r3, #:upper16:I2C_Variable
 515 0352 1A68     		ldr	r2, [r3, #0]
 516 0354 40F2CF73 		movw	r3, #1999
 517 0358 9A42     		cmp	r2, r3
 518 035a E0DD     		ble	.L18
 519              	.L17:
 520              		.loc 1 61 0 discriminator 3
 521 035c 4FF4E043 		mov	r3, #28672
 522 0360 C4F20603 		movt	r3, 16390
 523 0364 4FF4E042 		mov	r2, #28672
 524 0368 C4F20602 		movt	r2, 16390
 525 036c D278     		ldrb	r2, [r2, #3]
 526 036e D2B2     		uxtb	r2, r2
 527 0370 42F00202 		orr	r2, r2, #2
 528 0374 D2B2     		uxtb	r2, r2
 529 0376 DA70     		strb	r2, [r3, #3]
  62:../Sources/processor_specific_functions/K40/i2c.c ****   i2c_Stop(); // Envia STOP por ser o ultimo byte
 530              		.loc 1 62 0 is_stmt 1 discriminator 3
 531 0378 4FF4E043 		mov	r3, #28672
 532 037c C4F20603 		movt	r3, 16390
 533 0380 4FF4E042 		mov	r2, #28672
 534 0384 C4F20602 		movt	r2, 16390
 535 0388 9278     		ldrb	r2, [r2, #2]
 536 038a D2B2     		uxtb	r2, r2
 537 038c 22F02002 		bic	r2, r2, #32
 538 0390 D2B2     		uxtb	r2, r2
 539 0392 9A70     		strb	r2, [r3, #2]
 540 0394 4FF4E043 		mov	r3, #28672
 541 0398 C4F20603 		movt	r3, 16390
 542 039c 4FF4E042 		mov	r2, #28672
 543 03a0 C4F20602 		movt	r2, 16390
 544 03a4 9278     		ldrb	r2, [r2, #2]
 545 03a6 D2B2     		uxtb	r2, r2
 546 03a8 22F01002 		bic	r2, r2, #16
 547 03ac D2B2     		uxtb	r2, r2
 548 03ae 9A70     		strb	r2, [r3, #2]
  63:../Sources/processor_specific_functions/K40/i2c.c ****   result = I2C1_D ; // Le o byte
 549              		.loc 1 63 0 discriminator 3
 550 03b0 4FF4E043 		mov	r3, #28672
 551 03b4 C4F20603 		movt	r3, 16390
 552 03b8 1B79     		ldrb	r3, [r3, #4]
 553 03ba FB73     		strb	r3, [r7, #15]
  64:../Sources/processor_specific_functions/K40/i2c.c ****   Pause();
 554              		.loc 1 64 0 discriminator 3
 555 03bc FFF7FEFF 		bl	Pause
  65:../Sources/processor_specific_functions/K40/i2c.c ****   return result;
 556              		.loc 1 65 0 discriminator 3
 557 03c0 FB7B     		ldrb	r3, [r7, #15]	@ zero_extendqisi2
  66:../Sources/processor_specific_functions/K40/i2c.c **** }
 558              		.loc 1 66 0 discriminator 3
 559 03c2 1846     		mov	r0, r3
 560 03c4 07F11007 		add	r7, r7, #16
 561 03c8 BD46     		mov	sp, r7
 562 03ca 80BD     		pop	{r7, pc}
 563              		.cfi_endproc
 564              	.LFE3:
 566              		.align	2
 567              		.global	I2CWriteRegister
 568              		.thumb
 569              		.thumb_func
 571              	I2CWriteRegister:
 572              	.LFB4:
  67:../Sources/processor_specific_functions/K40/i2c.c **** 
  68:../Sources/processor_specific_functions/K40/i2c.c **** /* Escreve um byte no registrador interno do slave I2C
  69:../Sources/processor_specific_functions/K40/i2c.c ****  * SlaveID: endereco do slave
  70:../Sources/processor_specific_functions/K40/i2c.c ****  * RegisterAddress: endereco do registrador interno do slave
  71:../Sources/processor_specific_functions/K40/i2c.c ****  * Data: Valor a escrever
  72:../Sources/processor_specific_functions/K40/i2c.c ****  */
  73:../Sources/processor_specific_functions/K40/i2c.c **** void I2CWriteRegister(char SlaveID, char RegisterAddress, char Data)
  74:../Sources/processor_specific_functions/K40/i2c.c **** {
 573              		.loc 1 74 0
 574              		.cfi_startproc
 575              		@ args = 0, pretend = 0, frame = 8
 576              		@ frame_needed = 1, uses_anonymous_args = 0
 577 03cc 80B5     		push	{r7, lr}
 578              	.LCFI11:
 579              		.cfi_def_cfa_offset 8
 580              		.cfi_offset 7, -8
 581              		.cfi_offset 14, -4
 582 03ce 82B0     		sub	sp, sp, #8
 583              	.LCFI12:
 584              		.cfi_def_cfa_offset 16
 585 03d0 00AF     		add	r7, sp, #0
 586              	.LCFI13:
 587              		.cfi_def_cfa_register 7
 588 03d2 1346     		mov	r3, r2
 589 03d4 0246     		mov	r2, r0
 590 03d6 FA71     		strb	r2, [r7, #7]
 591 03d8 0A46     		mov	r2, r1
 592 03da BA71     		strb	r2, [r7, #6]
 593 03dc 7B71     		strb	r3, [r7, #5]
  75:../Sources/processor_specific_functions/K40/i2c.c ****   IIC_StartTransmission(SlaveID,MWSR);
 594              		.loc 1 75 0
 595 03de FB79     		ldrb	r3, [r7, #7]	@ zero_extendqisi2
 596 03e0 1846     		mov	r0, r3
 597 03e2 4FF00001 		mov	r1, #0
 598 03e6 FFF7FEFF 		bl	IIC_StartTransmission
  76:../Sources/processor_specific_functions/K40/i2c.c ****   i2c_Wait();
 599              		.loc 1 76 0
 600 03ea 40F20003 		movw	r3, #:lower16:I2C_Variable
 601 03ee C0F20003 		movt	r3, #:upper16:I2C_Variable
 602 03f2 4FF00002 		mov	r2, #0
 603 03f6 1A60     		str	r2, [r3, #0]
 604 03f8 0BE0     		b	.L21
 605              	.L23:
 606              		.loc 1 76 0 is_stmt 0 discriminator 4
 607 03fa 40F20003 		movw	r3, #:lower16:I2C_Variable
 608 03fe C0F20003 		movt	r3, #:upper16:I2C_Variable
 609 0402 1B68     		ldr	r3, [r3, #0]
 610 0404 03F10102 		add	r2, r3, #1
 611 0408 40F20003 		movw	r3, #:lower16:I2C_Variable
 612 040c C0F20003 		movt	r3, #:upper16:I2C_Variable
 613 0410 1A60     		str	r2, [r3, #0]
 614              	.L21:
 615              		.loc 1 76 0 discriminator 1
 616 0412 4FF4E043 		mov	r3, #28672
 617 0416 C4F20603 		movt	r3, 16390
 618 041a DB78     		ldrb	r3, [r3, #3]
 619 041c DBB2     		uxtb	r3, r3
 620 041e 03F00203 		and	r3, r3, #2
 621 0422 002B     		cmp	r3, #0
 622 0424 08D1     		bne	.L22
 623              		.loc 1 76 0 discriminator 2
 624 0426 40F20003 		movw	r3, #:lower16:I2C_Variable
 625 042a C0F20003 		movt	r3, #:upper16:I2C_Variable
 626 042e 1A68     		ldr	r2, [r3, #0]
 627 0430 40F2CF73 		movw	r3, #1999
 628 0434 9A42     		cmp	r2, r3
 629 0436 E0DD     		ble	.L23
 630              	.L22:
 631              		.loc 1 76 0 discriminator 3
 632 0438 4FF4E043 		mov	r3, #28672
 633 043c C4F20603 		movt	r3, 16390
 634 0440 4FF4E042 		mov	r2, #28672
 635 0444 C4F20602 		movt	r2, 16390
 636 0448 D278     		ldrb	r2, [r2, #3]
 637 044a D2B2     		uxtb	r2, r2
 638 044c 42F00202 		orr	r2, r2, #2
 639 0450 D2B2     		uxtb	r2, r2
 640 0452 DA70     		strb	r2, [r3, #3]
  77:../Sources/processor_specific_functions/K40/i2c.c ****   i2c_write_byte(RegisterAddress);
 641              		.loc 1 77 0 is_stmt 1 discriminator 3
 642 0454 4FF4E043 		mov	r3, #28672
 643 0458 C4F20603 		movt	r3, 16390
 644 045c BA79     		ldrb	r2, [r7, #6]
 645 045e 1A71     		strb	r2, [r3, #4]
  78:../Sources/processor_specific_functions/K40/i2c.c ****   i2c_Wait();
 646              		.loc 1 78 0 discriminator 3
 647 0460 40F20003 		movw	r3, #:lower16:I2C_Variable
 648 0464 C0F20003 		movt	r3, #:upper16:I2C_Variable
 649 0468 4FF00002 		mov	r2, #0
 650 046c 1A60     		str	r2, [r3, #0]
 651 046e 0BE0     		b	.L24
 652              	.L26:
 653              		.loc 1 78 0 is_stmt 0 discriminator 4
 654 0470 40F20003 		movw	r3, #:lower16:I2C_Variable
 655 0474 C0F20003 		movt	r3, #:upper16:I2C_Variable
 656 0478 1B68     		ldr	r3, [r3, #0]
 657 047a 03F10102 		add	r2, r3, #1
 658 047e 40F20003 		movw	r3, #:lower16:I2C_Variable
 659 0482 C0F20003 		movt	r3, #:upper16:I2C_Variable
 660 0486 1A60     		str	r2, [r3, #0]
 661              	.L24:
 662              		.loc 1 78 0 discriminator 1
 663 0488 4FF4E043 		mov	r3, #28672
 664 048c C4F20603 		movt	r3, 16390
 665 0490 DB78     		ldrb	r3, [r3, #3]
 666 0492 DBB2     		uxtb	r3, r3
 667 0494 03F00203 		and	r3, r3, #2
 668 0498 002B     		cmp	r3, #0
 669 049a 08D1     		bne	.L25
 670              		.loc 1 78 0 discriminator 2
 671 049c 40F20003 		movw	r3, #:lower16:I2C_Variable
 672 04a0 C0F20003 		movt	r3, #:upper16:I2C_Variable
 673 04a4 1A68     		ldr	r2, [r3, #0]
 674 04a6 40F2CF73 		movw	r3, #1999
 675 04aa 9A42     		cmp	r2, r3
 676 04ac E0DD     		ble	.L26
 677              	.L25:
 678              		.loc 1 78 0 discriminator 3
 679 04ae 4FF4E043 		mov	r3, #28672
 680 04b2 C4F20603 		movt	r3, 16390
 681 04b6 4FF4E042 		mov	r2, #28672
 682 04ba C4F20602 		movt	r2, 16390
 683 04be D278     		ldrb	r2, [r2, #3]
 684 04c0 D2B2     		uxtb	r2, r2
 685 04c2 42F00202 		orr	r2, r2, #2
 686 04c6 D2B2     		uxtb	r2, r2
 687 04c8 DA70     		strb	r2, [r3, #3]
  79:../Sources/processor_specific_functions/K40/i2c.c ****   i2c_write_byte(Data);
 688              		.loc 1 79 0 is_stmt 1 discriminator 3
 689 04ca 4FF4E043 		mov	r3, #28672
 690 04ce C4F20603 		movt	r3, 16390
 691 04d2 7A79     		ldrb	r2, [r7, #5]
 692 04d4 1A71     		strb	r2, [r3, #4]
  80:../Sources/processor_specific_functions/K40/i2c.c ****   i2c_Wait();
 693              		.loc 1 80 0 discriminator 3
 694 04d6 40F20003 		movw	r3, #:lower16:I2C_Variable
 695 04da C0F20003 		movt	r3, #:upper16:I2C_Variable
 696 04de 4FF00002 		mov	r2, #0
 697 04e2 1A60     		str	r2, [r3, #0]
 698 04e4 0BE0     		b	.L27
 699              	.L29:
 700              		.loc 1 80 0 is_stmt 0 discriminator 4
 701 04e6 40F20003 		movw	r3, #:lower16:I2C_Variable
 702 04ea C0F20003 		movt	r3, #:upper16:I2C_Variable
 703 04ee 1B68     		ldr	r3, [r3, #0]
 704 04f0 03F10102 		add	r2, r3, #1
 705 04f4 40F20003 		movw	r3, #:lower16:I2C_Variable
 706 04f8 C0F20003 		movt	r3, #:upper16:I2C_Variable
 707 04fc 1A60     		str	r2, [r3, #0]
 708              	.L27:
 709              		.loc 1 80 0 discriminator 1
 710 04fe 4FF4E043 		mov	r3, #28672
 711 0502 C4F20603 		movt	r3, 16390
 712 0506 DB78     		ldrb	r3, [r3, #3]
 713 0508 DBB2     		uxtb	r3, r3
 714 050a 03F00203 		and	r3, r3, #2
 715 050e 002B     		cmp	r3, #0
 716 0510 08D1     		bne	.L28
 717              		.loc 1 80 0 discriminator 2
 718 0512 40F20003 		movw	r3, #:lower16:I2C_Variable
 719 0516 C0F20003 		movt	r3, #:upper16:I2C_Variable
 720 051a 1A68     		ldr	r2, [r3, #0]
 721 051c 40F2CF73 		movw	r3, #1999
 722 0520 9A42     		cmp	r2, r3
 723 0522 E0DD     		ble	.L29
 724              	.L28:
 725              		.loc 1 80 0 discriminator 3
 726 0524 4FF4E043 		mov	r3, #28672
 727 0528 C4F20603 		movt	r3, 16390
 728 052c 4FF4E042 		mov	r2, #28672
 729 0530 C4F20602 		movt	r2, 16390
 730 0534 D278     		ldrb	r2, [r2, #3]
 731 0536 D2B2     		uxtb	r2, r2
 732 0538 42F00202 		orr	r2, r2, #2
 733 053c D2B2     		uxtb	r2, r2
 734 053e DA70     		strb	r2, [r3, #3]
  81:../Sources/processor_specific_functions/K40/i2c.c ****   i2c_Stop();
 735              		.loc 1 81 0 is_stmt 1 discriminator 3
 736 0540 4FF4E043 		mov	r3, #28672
 737 0544 C4F20603 		movt	r3, 16390
 738 0548 4FF4E042 		mov	r2, #28672
 739 054c C4F20602 		movt	r2, 16390
 740 0550 9278     		ldrb	r2, [r2, #2]
 741 0552 D2B2     		uxtb	r2, r2
 742 0554 22F02002 		bic	r2, r2, #32
 743 0558 D2B2     		uxtb	r2, r2
 744 055a 9A70     		strb	r2, [r3, #2]
 745 055c 4FF4E043 		mov	r3, #28672
 746 0560 C4F20603 		movt	r3, 16390
 747 0564 4FF4E042 		mov	r2, #28672
 748 0568 C4F20602 		movt	r2, 16390
 749 056c 9278     		ldrb	r2, [r2, #2]
 750 056e D2B2     		uxtb	r2, r2
 751 0570 22F01002 		bic	r2, r2, #16
 752 0574 D2B2     		uxtb	r2, r2
 753 0576 9A70     		strb	r2, [r3, #2]
  82:../Sources/processor_specific_functions/K40/i2c.c ****   Pause();
 754              		.loc 1 82 0 discriminator 3
 755 0578 FFF7FEFF 		bl	Pause
  83:../Sources/processor_specific_functions/K40/i2c.c **** }
 756              		.loc 1 83 0 discriminator 3
 757 057c 07F10807 		add	r7, r7, #8
 758 0580 BD46     		mov	sp, r7
 759 0582 80BD     		pop	{r7, pc}
 760              		.cfi_endproc
 761              	.LFE4:
 763              		.align	2
 764              		.global	I2CReadMultiRegisters
 765              		.thumb
 766              		.thumb_func
 768              	I2CReadMultiRegisters:
 769              	.LFB5:
  84:../Sources/processor_specific_functions/K40/i2c.c **** 
  85:../Sources/processor_specific_functions/K40/i2c.c **** /* Le "N" registradores internos do slave I2C
  86:../Sources/processor_specific_functions/K40/i2c.c ****  * SlaveID: endereco do slave
  87:../Sources/processor_specific_functions/K40/i2c.c ****  * RegisterAddress: endereco do primeiro registrador interno do slave a ser lido
  88:../Sources/processor_specific_functions/K40/i2c.c ****  * n: Numero de registradores a serem lidos em sequencia
  89:../Sources/processor_specific_functions/K40/i2c.c ****  * Resultado armazenado no ponteiro *r
  90:../Sources/processor_specific_functions/K40/i2c.c ****  */
  91:../Sources/processor_specific_functions/K40/i2c.c **** void I2CReadMultiRegisters(char SlaveID, char RegisterAddress, char * r, char n)
  92:../Sources/processor_specific_functions/K40/i2c.c **** {
 770              		.loc 1 92 0
 771              		.cfi_startproc
 772              		@ args = 0, pretend = 0, frame = 16
 773              		@ frame_needed = 1, uses_anonymous_args = 0
 774 0584 80B5     		push	{r7, lr}
 775              	.LCFI14:
 776              		.cfi_def_cfa_offset 8
 777              		.cfi_offset 7, -8
 778              		.cfi_offset 14, -4
 779 0586 84B0     		sub	sp, sp, #16
 780              	.LCFI15:
 781              		.cfi_def_cfa_offset 24
 782 0588 00AF     		add	r7, sp, #0
 783              	.LCFI16:
 784              		.cfi_def_cfa_register 7
 785 058a 3A60     		str	r2, [r7, #0]
 786 058c 0246     		mov	r2, r0
 787 058e FA71     		strb	r2, [r7, #7]
 788 0590 0A46     		mov	r2, r1
 789 0592 BA71     		strb	r2, [r7, #6]
 790 0594 7B71     		strb	r3, [r7, #5]
  93:../Sources/processor_specific_functions/K40/i2c.c ****   char i;
  94:../Sources/processor_specific_functions/K40/i2c.c **** 
  95:../Sources/processor_specific_functions/K40/i2c.c ****   IIC_StartTransmission(SlaveID,MWSR);
 791              		.loc 1 95 0
 792 0596 FB79     		ldrb	r3, [r7, #7]	@ zero_extendqisi2
 793 0598 1846     		mov	r0, r3
 794 059a 4FF00001 		mov	r1, #0
 795 059e FFF7FEFF 		bl	IIC_StartTransmission
  96:../Sources/processor_specific_functions/K40/i2c.c ****   i2c_Wait();
 796              		.loc 1 96 0
 797 05a2 40F20003 		movw	r3, #:lower16:I2C_Variable
 798 05a6 C0F20003 		movt	r3, #:upper16:I2C_Variable
 799 05aa 4FF00002 		mov	r2, #0
 800 05ae 1A60     		str	r2, [r3, #0]
 801 05b0 0BE0     		b	.L31
 802              	.L33:
 803              		.loc 1 96 0 is_stmt 0 discriminator 4
 804 05b2 40F20003 		movw	r3, #:lower16:I2C_Variable
 805 05b6 C0F20003 		movt	r3, #:upper16:I2C_Variable
 806 05ba 1B68     		ldr	r3, [r3, #0]
 807 05bc 03F10102 		add	r2, r3, #1
 808 05c0 40F20003 		movw	r3, #:lower16:I2C_Variable
 809 05c4 C0F20003 		movt	r3, #:upper16:I2C_Variable
 810 05c8 1A60     		str	r2, [r3, #0]
 811              	.L31:
 812              		.loc 1 96 0 discriminator 1
 813 05ca 4FF4E043 		mov	r3, #28672
 814 05ce C4F20603 		movt	r3, 16390
 815 05d2 DB78     		ldrb	r3, [r3, #3]
 816 05d4 DBB2     		uxtb	r3, r3
 817 05d6 03F00203 		and	r3, r3, #2
 818 05da 002B     		cmp	r3, #0
 819 05dc 08D1     		bne	.L32
 820              		.loc 1 96 0 discriminator 2
 821 05de 40F20003 		movw	r3, #:lower16:I2C_Variable
 822 05e2 C0F20003 		movt	r3, #:upper16:I2C_Variable
 823 05e6 1A68     		ldr	r2, [r3, #0]
 824 05e8 40F2CF73 		movw	r3, #1999
 825 05ec 9A42     		cmp	r2, r3
 826 05ee E0DD     		ble	.L33
 827              	.L32:
 828              		.loc 1 96 0 discriminator 3
 829 05f0 4FF4E043 		mov	r3, #28672
 830 05f4 C4F20603 		movt	r3, 16390
 831 05f8 4FF4E042 		mov	r2, #28672
 832 05fc C4F20602 		movt	r2, 16390
 833 0600 D278     		ldrb	r2, [r2, #3]
 834 0602 D2B2     		uxtb	r2, r2
 835 0604 42F00202 		orr	r2, r2, #2
 836 0608 D2B2     		uxtb	r2, r2
 837 060a DA70     		strb	r2, [r3, #3]
  97:../Sources/processor_specific_functions/K40/i2c.c ****   i2c_write_byte(RegisterAddress);
 838              		.loc 1 97 0 is_stmt 1 discriminator 3
 839 060c 4FF4E043 		mov	r3, #28672
 840 0610 C4F20603 		movt	r3, 16390
 841 0614 BA79     		ldrb	r2, [r7, #6]
 842 0616 1A71     		strb	r2, [r3, #4]
  98:../Sources/processor_specific_functions/K40/i2c.c ****   i2c_Wait();
 843              		.loc 1 98 0 discriminator 3
 844 0618 40F20003 		movw	r3, #:lower16:I2C_Variable
 845 061c C0F20003 		movt	r3, #:upper16:I2C_Variable
 846 0620 4FF00002 		mov	r2, #0
 847 0624 1A60     		str	r2, [r3, #0]
 848 0626 0BE0     		b	.L34
 849              	.L36:
 850              		.loc 1 98 0 is_stmt 0 discriminator 4
 851 0628 40F20003 		movw	r3, #:lower16:I2C_Variable
 852 062c C0F20003 		movt	r3, #:upper16:I2C_Variable
 853 0630 1B68     		ldr	r3, [r3, #0]
 854 0632 03F10102 		add	r2, r3, #1
 855 0636 40F20003 		movw	r3, #:lower16:I2C_Variable
 856 063a C0F20003 		movt	r3, #:upper16:I2C_Variable
 857 063e 1A60     		str	r2, [r3, #0]
 858              	.L34:
 859              		.loc 1 98 0 discriminator 1
 860 0640 4FF4E043 		mov	r3, #28672
 861 0644 C4F20603 		movt	r3, 16390
 862 0648 DB78     		ldrb	r3, [r3, #3]
 863 064a DBB2     		uxtb	r3, r3
 864 064c 03F00203 		and	r3, r3, #2
 865 0650 002B     		cmp	r3, #0
 866 0652 08D1     		bne	.L35
 867              		.loc 1 98 0 discriminator 2
 868 0654 40F20003 		movw	r3, #:lower16:I2C_Variable
 869 0658 C0F20003 		movt	r3, #:upper16:I2C_Variable
 870 065c 1A68     		ldr	r2, [r3, #0]
 871 065e 40F2CF73 		movw	r3, #1999
 872 0662 9A42     		cmp	r2, r3
 873 0664 E0DD     		ble	.L36
 874              	.L35:
 875              		.loc 1 98 0 discriminator 3
 876 0666 4FF4E043 		mov	r3, #28672
 877 066a C4F20603 		movt	r3, 16390
 878 066e 4FF4E042 		mov	r2, #28672
 879 0672 C4F20602 		movt	r2, 16390
 880 0676 D278     		ldrb	r2, [r2, #3]
 881 0678 D2B2     		uxtb	r2, r2
 882 067a 42F00202 		orr	r2, r2, #2
 883 067e D2B2     		uxtb	r2, r2
 884 0680 DA70     		strb	r2, [r3, #3]
  99:../Sources/processor_specific_functions/K40/i2c.c ****   i2c_RepeatedStart();
 885              		.loc 1 99 0 is_stmt 1 discriminator 3
 886 0682 4FF4E043 		mov	r3, #28672
 887 0686 C4F20603 		movt	r3, 16390
 888 068a 4FF4E042 		mov	r2, #28672
 889 068e C4F20602 		movt	r2, 16390
 890 0692 9278     		ldrb	r2, [r2, #2]
 891 0694 D2B2     		uxtb	r2, r2
 892 0696 42F00402 		orr	r2, r2, #4
 893 069a D2B2     		uxtb	r2, r2
 894 069c 9A70     		strb	r2, [r3, #2]
 100:../Sources/processor_specific_functions/K40/i2c.c ****   i2c_write_byte((SlaveID << 1) | 0x01);
 895              		.loc 1 100 0 discriminator 3
 896 069e 4FF4E043 		mov	r3, #28672
 897 06a2 C4F20603 		movt	r3, 16390
 898 06a6 FA79     		ldrb	r2, [r7, #7]	@ zero_extendqisi2
 899 06a8 4FEA4202 		lsl	r2, r2, #1
 900 06ac D2B2     		uxtb	r2, r2
 901 06ae 42F00102 		orr	r2, r2, #1
 902 06b2 D2B2     		uxtb	r2, r2
 903 06b4 D2B2     		uxtb	r2, r2
 904 06b6 1A71     		strb	r2, [r3, #4]
 101:../Sources/processor_specific_functions/K40/i2c.c ****   i2c_Wait();
 905              		.loc 1 101 0 discriminator 3
 906 06b8 40F20003 		movw	r3, #:lower16:I2C_Variable
 907 06bc C0F20003 		movt	r3, #:upper16:I2C_Variable
 908 06c0 4FF00002 		mov	r2, #0
 909 06c4 1A60     		str	r2, [r3, #0]
 910 06c6 0BE0     		b	.L37
 911              	.L39:
 912              		.loc 1 101 0 is_stmt 0 discriminator 4
 913 06c8 40F20003 		movw	r3, #:lower16:I2C_Variable
 914 06cc C0F20003 		movt	r3, #:upper16:I2C_Variable
 915 06d0 1B68     		ldr	r3, [r3, #0]
 916 06d2 03F10102 		add	r2, r3, #1
 917 06d6 40F20003 		movw	r3, #:lower16:I2C_Variable
 918 06da C0F20003 		movt	r3, #:upper16:I2C_Variable
 919 06de 1A60     		str	r2, [r3, #0]
 920              	.L37:
 921              		.loc 1 101 0 discriminator 1
 922 06e0 4FF4E043 		mov	r3, #28672
 923 06e4 C4F20603 		movt	r3, 16390
 924 06e8 DB78     		ldrb	r3, [r3, #3]
 925 06ea DBB2     		uxtb	r3, r3
 926 06ec 03F00203 		and	r3, r3, #2
 927 06f0 002B     		cmp	r3, #0
 928 06f2 08D1     		bne	.L38
 929              		.loc 1 101 0 discriminator 2
 930 06f4 40F20003 		movw	r3, #:lower16:I2C_Variable
 931 06f8 C0F20003 		movt	r3, #:upper16:I2C_Variable
 932 06fc 1A68     		ldr	r2, [r3, #0]
 933 06fe 40F2CF73 		movw	r3, #1999
 934 0702 9A42     		cmp	r2, r3
 935 0704 E0DD     		ble	.L39
 936              	.L38:
 937              		.loc 1 101 0 discriminator 3
 938 0706 4FF4E043 		mov	r3, #28672
 939 070a C4F20603 		movt	r3, 16390
 940 070e 4FF4E042 		mov	r2, #28672
 941 0712 C4F20602 		movt	r2, 16390
 942 0716 D278     		ldrb	r2, [r2, #3]
 943 0718 D2B2     		uxtb	r2, r2
 944 071a 42F00202 		orr	r2, r2, #2
 945 071e D2B2     		uxtb	r2, r2
 946 0720 DA70     		strb	r2, [r3, #3]
 102:../Sources/processor_specific_functions/K40/i2c.c ****   i2c_EnterRxMode();
 947              		.loc 1 102 0 is_stmt 1 discriminator 3
 948 0722 4FF4E043 		mov	r3, #28672
 949 0726 C4F20603 		movt	r3, 16390
 950 072a 4FF4E042 		mov	r2, #28672
 951 072e C4F20602 		movt	r2, 16390
 952 0732 9278     		ldrb	r2, [r2, #2]
 953 0734 D2B2     		uxtb	r2, r2
 954 0736 22F01002 		bic	r2, r2, #16
 955 073a D2B2     		uxtb	r2, r2
 956 073c 9A70     		strb	r2, [r3, #2]
 103:../Sources/processor_specific_functions/K40/i2c.c ****   i2c_EnableAck();
 957              		.loc 1 103 0 discriminator 3
 958 073e 4FF4E043 		mov	r3, #28672
 959 0742 C4F20603 		movt	r3, 16390
 960 0746 4FF4E042 		mov	r2, #28672
 961 074a C4F20602 		movt	r2, 16390
 962 074e 9278     		ldrb	r2, [r2, #2]
 963 0750 D2B2     		uxtb	r2, r2
 964 0752 22F00802 		bic	r2, r2, #8
 965 0756 D2B2     		uxtb	r2, r2
 966 0758 9A70     		strb	r2, [r3, #2]
 104:../Sources/processor_specific_functions/K40/i2c.c ****   i = I2C1_D ; // Dummy read
 967              		.loc 1 104 0 discriminator 3
 968 075a 4FF4E043 		mov	r3, #28672
 969 075e C4F20603 		movt	r3, 16390
 970 0762 1B79     		ldrb	r3, [r3, #4]
 971 0764 FB73     		strb	r3, [r7, #15]
 105:../Sources/processor_specific_functions/K40/i2c.c ****   i2c_Wait();
 972              		.loc 1 105 0 discriminator 3
 973 0766 40F20003 		movw	r3, #:lower16:I2C_Variable
 974 076a C0F20003 		movt	r3, #:upper16:I2C_Variable
 975 076e 4FF00002 		mov	r2, #0
 976 0772 1A60     		str	r2, [r3, #0]
 977 0774 0BE0     		b	.L40
 978              	.L42:
 979              		.loc 1 105 0 is_stmt 0 discriminator 4
 980 0776 40F20003 		movw	r3, #:lower16:I2C_Variable
 981 077a C0F20003 		movt	r3, #:upper16:I2C_Variable
 982 077e 1B68     		ldr	r3, [r3, #0]
 983 0780 03F10102 		add	r2, r3, #1
 984 0784 40F20003 		movw	r3, #:lower16:I2C_Variable
 985 0788 C0F20003 		movt	r3, #:upper16:I2C_Variable
 986 078c 1A60     		str	r2, [r3, #0]
 987              	.L40:
 988              		.loc 1 105 0 discriminator 1
 989 078e 4FF4E043 		mov	r3, #28672
 990 0792 C4F20603 		movt	r3, 16390
 991 0796 DB78     		ldrb	r3, [r3, #3]
 992 0798 DBB2     		uxtb	r3, r3
 993 079a 03F00203 		and	r3, r3, #2
 994 079e 002B     		cmp	r3, #0
 995 07a0 08D1     		bne	.L41
 996              		.loc 1 105 0 discriminator 2
 997 07a2 40F20003 		movw	r3, #:lower16:I2C_Variable
 998 07a6 C0F20003 		movt	r3, #:upper16:I2C_Variable
 999 07aa 1A68     		ldr	r2, [r3, #0]
 1000 07ac 40F2CF73 		movw	r3, #1999
 1001 07b0 9A42     		cmp	r2, r3
 1002 07b2 E0DD     		ble	.L42
 1003              	.L41:
 1004              		.loc 1 105 0 discriminator 3
 1005 07b4 4FF4E043 		mov	r3, #28672
 1006 07b8 C4F20603 		movt	r3, 16390
 1007 07bc 4FF4E042 		mov	r2, #28672
 1008 07c0 C4F20602 		movt	r2, 16390
 1009 07c4 D278     		ldrb	r2, [r2, #3]
 1010 07c6 D2B2     		uxtb	r2, r2
 1011 07c8 42F00202 		orr	r2, r2, #2
 1012 07cc D2B2     		uxtb	r2, r2
 1013 07ce DA70     		strb	r2, [r3, #3]
 106:../Sources/processor_specific_functions/K40/i2c.c ****   for(i=0;i<n-2;i++) // le n-1 bytes
 1014              		.loc 1 106 0 is_stmt 1 discriminator 3
 1015 07d0 4FF00003 		mov	r3, #0
 1016 07d4 FB73     		strb	r3, [r7, #15]
 1017 07d6 44E0     		b	.L43
 1018              	.L47:
 107:../Sources/processor_specific_functions/K40/i2c.c ****   {
 108:../Sources/processor_specific_functions/K40/i2c.c ****     *r = I2C1_D;
 1019              		.loc 1 108 0
 1020 07d8 4FF4E043 		mov	r3, #28672
 1021 07dc C4F20603 		movt	r3, 16390
 1022 07e0 1B79     		ldrb	r3, [r3, #4]
 1023 07e2 DAB2     		uxtb	r2, r3
 1024 07e4 3B68     		ldr	r3, [r7, #0]
 1025 07e6 1A70     		strb	r2, [r3, #0]
 109:../Sources/processor_specific_functions/K40/i2c.c ****     r++;
 1026              		.loc 1 109 0
 1027 07e8 3B68     		ldr	r3, [r7, #0]
 1028 07ea 03F10103 		add	r3, r3, #1
 1029 07ee 3B60     		str	r3, [r7, #0]
 110:../Sources/processor_specific_functions/K40/i2c.c ****     i2c_Wait();
 1030              		.loc 1 110 0
 1031 07f0 40F20003 		movw	r3, #:lower16:I2C_Variable
 1032 07f4 C0F20003 		movt	r3, #:upper16:I2C_Variable
 1033 07f8 4FF00002 		mov	r2, #0
 1034 07fc 1A60     		str	r2, [r3, #0]
 1035 07fe 0BE0     		b	.L44
 1036              	.L46:
 1037              		.loc 1 110 0 is_stmt 0 discriminator 4
 1038 0800 40F20003 		movw	r3, #:lower16:I2C_Variable
 1039 0804 C0F20003 		movt	r3, #:upper16:I2C_Variable
 1040 0808 1B68     		ldr	r3, [r3, #0]
 1041 080a 03F10102 		add	r2, r3, #1
 1042 080e 40F20003 		movw	r3, #:lower16:I2C_Variable
 1043 0812 C0F20003 		movt	r3, #:upper16:I2C_Variable
 1044 0816 1A60     		str	r2, [r3, #0]
 1045              	.L44:
 1046              		.loc 1 110 0 discriminator 1
 1047 0818 4FF4E043 		mov	r3, #28672
 1048 081c C4F20603 		movt	r3, 16390
 1049 0820 DB78     		ldrb	r3, [r3, #3]
 1050 0822 DBB2     		uxtb	r3, r3
 1051 0824 03F00203 		and	r3, r3, #2
 1052 0828 002B     		cmp	r3, #0
 1053 082a 08D1     		bne	.L45
 1054              		.loc 1 110 0 discriminator 2
 1055 082c 40F20003 		movw	r3, #:lower16:I2C_Variable
 1056 0830 C0F20003 		movt	r3, #:upper16:I2C_Variable
 1057 0834 1A68     		ldr	r2, [r3, #0]
 1058 0836 40F2CF73 		movw	r3, #1999
 1059 083a 9A42     		cmp	r2, r3
 1060 083c E0DD     		ble	.L46
 1061              	.L45:
 1062              		.loc 1 110 0 discriminator 3
 1063 083e 4FF4E043 		mov	r3, #28672
 1064 0842 C4F20603 		movt	r3, 16390
 1065 0846 4FF4E042 		mov	r2, #28672
 1066 084a C4F20602 		movt	r2, 16390
 1067 084e D278     		ldrb	r2, [r2, #3]
 1068 0850 D2B2     		uxtb	r2, r2
 1069 0852 42F00202 		orr	r2, r2, #2
 1070 0856 D2B2     		uxtb	r2, r2
 1071 0858 DA70     		strb	r2, [r3, #3]
 106:../Sources/processor_specific_functions/K40/i2c.c ****   for(i=0;i<n-2;i++) // le n-1 bytes
 1072              		.loc 1 106 0 is_stmt 1 discriminator 3
 1073 085a FB7B     		ldrb	r3, [r7, #15]
 1074 085c 03F10103 		add	r3, r3, #1
 1075 0860 FB73     		strb	r3, [r7, #15]
 1076              	.L43:
 106:../Sources/processor_specific_functions/K40/i2c.c ****   for(i=0;i<n-2;i++) // le n-1 bytes
 1077              		.loc 1 106 0 is_stmt 0 discriminator 1
 1078 0862 FA7B     		ldrb	r2, [r7, #15]	@ zero_extendqisi2
 1079 0864 7B79     		ldrb	r3, [r7, #5]	@ zero_extendqisi2
 1080 0866 A3F10203 		sub	r3, r3, #2
 1081 086a 9A42     		cmp	r2, r3
 1082 086c B4DB     		blt	.L47
 111:../Sources/processor_specific_functions/K40/i2c.c ****   }
 112:../Sources/processor_specific_functions/K40/i2c.c ****   i2c_DisableAck(); // Desabilita ACK por ser o penultimo byte a ler
 1083              		.loc 1 112 0 is_stmt 1
 1084 086e 4FF4E043 		mov	r3, #28672
 1085 0872 C4F20603 		movt	r3, 16390
 1086 0876 4FF4E042 		mov	r2, #28672
 1087 087a C4F20602 		movt	r2, 16390
 1088 087e 9278     		ldrb	r2, [r2, #2]
 1089 0880 D2B2     		uxtb	r2, r2
 1090 0882 42F00802 		orr	r2, r2, #8
 1091 0886 D2B2     		uxtb	r2, r2
 1092 0888 9A70     		strb	r2, [r3, #2]
 113:../Sources/processor_specific_functions/K40/i2c.c ****   *r = I2C1_D; // Le penultimo byte
 1093              		.loc 1 113 0
 1094 088a 4FF4E043 		mov	r3, #28672
 1095 088e C4F20603 		movt	r3, 16390
 1096 0892 1B79     		ldrb	r3, [r3, #4]
 1097 0894 DAB2     		uxtb	r2, r3
 1098 0896 3B68     		ldr	r3, [r7, #0]
 1099 0898 1A70     		strb	r2, [r3, #0]
 114:../Sources/processor_specific_functions/K40/i2c.c ****   r++;
 1100              		.loc 1 114 0
 1101 089a 3B68     		ldr	r3, [r7, #0]
 1102 089c 03F10103 		add	r3, r3, #1
 1103 08a0 3B60     		str	r3, [r7, #0]
 115:../Sources/processor_specific_functions/K40/i2c.c ****   i2c_Wait();
 1104              		.loc 1 115 0
 1105 08a2 40F20003 		movw	r3, #:lower16:I2C_Variable
 1106 08a6 C0F20003 		movt	r3, #:upper16:I2C_Variable
 1107 08aa 4FF00002 		mov	r2, #0
 1108 08ae 1A60     		str	r2, [r3, #0]
 1109 08b0 0BE0     		b	.L48
 1110              	.L50:
 1111              		.loc 1 115 0 is_stmt 0 discriminator 4
 1112 08b2 40F20003 		movw	r3, #:lower16:I2C_Variable
 1113 08b6 C0F20003 		movt	r3, #:upper16:I2C_Variable
 1114 08ba 1B68     		ldr	r3, [r3, #0]
 1115 08bc 03F10102 		add	r2, r3, #1
 1116 08c0 40F20003 		movw	r3, #:lower16:I2C_Variable
 1117 08c4 C0F20003 		movt	r3, #:upper16:I2C_Variable
 1118 08c8 1A60     		str	r2, [r3, #0]
 1119              	.L48:
 1120              		.loc 1 115 0 discriminator 1
 1121 08ca 4FF4E043 		mov	r3, #28672
 1122 08ce C4F20603 		movt	r3, 16390
 1123 08d2 DB78     		ldrb	r3, [r3, #3]
 1124 08d4 DBB2     		uxtb	r3, r3
 1125 08d6 03F00203 		and	r3, r3, #2
 1126 08da 002B     		cmp	r3, #0
 1127 08dc 08D1     		bne	.L49
 1128              		.loc 1 115 0 discriminator 2
 1129 08de 40F20003 		movw	r3, #:lower16:I2C_Variable
 1130 08e2 C0F20003 		movt	r3, #:upper16:I2C_Variable
 1131 08e6 1A68     		ldr	r2, [r3, #0]
 1132 08e8 40F2CF73 		movw	r3, #1999
 1133 08ec 9A42     		cmp	r2, r3
 1134 08ee E0DD     		ble	.L50
 1135              	.L49:
 1136              		.loc 1 115 0 discriminator 3
 1137 08f0 4FF4E043 		mov	r3, #28672
 1138 08f4 C4F20603 		movt	r3, 16390
 1139 08f8 4FF4E042 		mov	r2, #28672
 1140 08fc C4F20602 		movt	r2, 16390
 1141 0900 D278     		ldrb	r2, [r2, #3]
 1142 0902 D2B2     		uxtb	r2, r2
 1143 0904 42F00202 		orr	r2, r2, #2
 1144 0908 D2B2     		uxtb	r2, r2
 1145 090a DA70     		strb	r2, [r3, #3]
 116:../Sources/processor_specific_functions/K40/i2c.c ****   i2c_Stop(); // Envia STOP por ser o ultimo byte
 1146              		.loc 1 116 0 is_stmt 1 discriminator 3
 1147 090c 4FF4E043 		mov	r3, #28672
 1148 0910 C4F20603 		movt	r3, 16390
 1149 0914 4FF4E042 		mov	r2, #28672
 1150 0918 C4F20602 		movt	r2, 16390
 1151 091c 9278     		ldrb	r2, [r2, #2]
 1152 091e D2B2     		uxtb	r2, r2
 1153 0920 22F02002 		bic	r2, r2, #32
 1154 0924 D2B2     		uxtb	r2, r2
 1155 0926 9A70     		strb	r2, [r3, #2]
 1156 0928 4FF4E043 		mov	r3, #28672
 1157 092c C4F20603 		movt	r3, 16390
 1158 0930 4FF4E042 		mov	r2, #28672
 1159 0934 C4F20602 		movt	r2, 16390
 1160 0938 9278     		ldrb	r2, [r2, #2]
 1161 093a D2B2     		uxtb	r2, r2
 1162 093c 22F01002 		bic	r2, r2, #16
 1163 0940 D2B2     		uxtb	r2, r2
 1164 0942 9A70     		strb	r2, [r3, #2]
 117:../Sources/processor_specific_functions/K40/i2c.c ****   *r = I2C1_D; // Le ultimo byte
 1165              		.loc 1 117 0 discriminator 3
 1166 0944 4FF4E043 		mov	r3, #28672
 1167 0948 C4F20603 		movt	r3, 16390
 1168 094c 1B79     		ldrb	r3, [r3, #4]
 1169 094e DAB2     		uxtb	r2, r3
 1170 0950 3B68     		ldr	r3, [r7, #0]
 1171 0952 1A70     		strb	r2, [r3, #0]
 118:../Sources/processor_specific_functions/K40/i2c.c ****   Pause();
 1172              		.loc 1 118 0 discriminator 3
 1173 0954 FFF7FEFF 		bl	Pause
 119:../Sources/processor_specific_functions/K40/i2c.c **** }
 1174              		.loc 1 119 0 discriminator 3
 1175 0958 07F11007 		add	r7, r7, #16
 1176 095c BD46     		mov	sp, r7
 1177 095e 80BD     		pop	{r7, pc}
 1178              		.cfi_endproc
 1179              	.LFE5:
 1181              		.align	2
 1182              		.global	DMA_I2CReadMultiRegisters
 1183              		.thumb
 1184              		.thumb_func
 1186              	DMA_I2CReadMultiRegisters:
 1187              	.LFB6:
 120:../Sources/processor_specific_functions/K40/i2c.c **** 
 121:../Sources/processor_specific_functions/K40/i2c.c **** void DMA_I2CReadMultiRegisters(char SlaveID, char RegisterAddress, char * r, char n)
 122:../Sources/processor_specific_functions/K40/i2c.c **** {
 1188              		.loc 1 122 0
 1189              		.cfi_startproc
 1190              		@ args = 0, pretend = 0, frame = 16
 1191              		@ frame_needed = 1, uses_anonymous_args = 0
 1192 0960 80B5     		push	{r7, lr}
 1193              	.LCFI17:
 1194              		.cfi_def_cfa_offset 8
 1195              		.cfi_offset 7, -8
 1196              		.cfi_offset 14, -4
 1197 0962 84B0     		sub	sp, sp, #16
 1198              	.LCFI18:
 1199              		.cfi_def_cfa_offset 24
 1200 0964 00AF     		add	r7, sp, #0
 1201              	.LCFI19:
 1202              		.cfi_def_cfa_register 7
 1203 0966 3A60     		str	r2, [r7, #0]
 1204 0968 0246     		mov	r2, r0
 1205 096a FA71     		strb	r2, [r7, #7]
 1206 096c 0A46     		mov	r2, r1
 1207 096e BA71     		strb	r2, [r7, #6]
 1208 0970 7B71     		strb	r3, [r7, #5]
 123:../Sources/processor_specific_functions/K40/i2c.c ****   char i;
 124:../Sources/processor_specific_functions/K40/i2c.c ****   IIC_StartTransmission(SlaveID,MWSR);
 1209              		.loc 1 124 0
 1210 0972 FB79     		ldrb	r3, [r7, #7]	@ zero_extendqisi2
 1211 0974 1846     		mov	r0, r3
 1212 0976 4FF00001 		mov	r1, #0
 1213 097a FFF7FEFF 		bl	IIC_StartTransmission
 125:../Sources/processor_specific_functions/K40/i2c.c ****   i2c_Wait();
 1214              		.loc 1 125 0
 1215 097e 40F20003 		movw	r3, #:lower16:I2C_Variable
 1216 0982 C0F20003 		movt	r3, #:upper16:I2C_Variable
 1217 0986 4FF00002 		mov	r2, #0
 1218 098a 1A60     		str	r2, [r3, #0]
 1219 098c 0BE0     		b	.L52
 1220              	.L54:
 1221              		.loc 1 125 0 is_stmt 0 discriminator 4
 1222 098e 40F20003 		movw	r3, #:lower16:I2C_Variable
 1223 0992 C0F20003 		movt	r3, #:upper16:I2C_Variable
 1224 0996 1B68     		ldr	r3, [r3, #0]
 1225 0998 03F10102 		add	r2, r3, #1
 1226 099c 40F20003 		movw	r3, #:lower16:I2C_Variable
 1227 09a0 C0F20003 		movt	r3, #:upper16:I2C_Variable
 1228 09a4 1A60     		str	r2, [r3, #0]
 1229              	.L52:
 1230              		.loc 1 125 0 discriminator 1
 1231 09a6 4FF4E043 		mov	r3, #28672
 1232 09aa C4F20603 		movt	r3, 16390
 1233 09ae DB78     		ldrb	r3, [r3, #3]
 1234 09b0 DBB2     		uxtb	r3, r3
 1235 09b2 03F00203 		and	r3, r3, #2
 1236 09b6 002B     		cmp	r3, #0
 1237 09b8 08D1     		bne	.L53
 1238              		.loc 1 125 0 discriminator 2
 1239 09ba 40F20003 		movw	r3, #:lower16:I2C_Variable
 1240 09be C0F20003 		movt	r3, #:upper16:I2C_Variable
 1241 09c2 1A68     		ldr	r2, [r3, #0]
 1242 09c4 40F2CF73 		movw	r3, #1999
 1243 09c8 9A42     		cmp	r2, r3
 1244 09ca E0DD     		ble	.L54
 1245              	.L53:
 1246              		.loc 1 125 0 discriminator 3
 1247 09cc 4FF4E043 		mov	r3, #28672
 1248 09d0 C4F20603 		movt	r3, 16390
 1249 09d4 4FF4E042 		mov	r2, #28672
 1250 09d8 C4F20602 		movt	r2, 16390
 1251 09dc D278     		ldrb	r2, [r2, #3]
 1252 09de D2B2     		uxtb	r2, r2
 1253 09e0 42F00202 		orr	r2, r2, #2
 1254 09e4 D2B2     		uxtb	r2, r2
 1255 09e6 DA70     		strb	r2, [r3, #3]
 126:../Sources/processor_specific_functions/K40/i2c.c ****   i2c_write_byte(RegisterAddress);
 1256              		.loc 1 126 0 is_stmt 1 discriminator 3
 1257 09e8 4FF4E043 		mov	r3, #28672
 1258 09ec C4F20603 		movt	r3, 16390
 1259 09f0 BA79     		ldrb	r2, [r7, #6]
 1260 09f2 1A71     		strb	r2, [r3, #4]
 127:../Sources/processor_specific_functions/K40/i2c.c ****   i2c_Wait();
 1261              		.loc 1 127 0 discriminator 3
 1262 09f4 40F20003 		movw	r3, #:lower16:I2C_Variable
 1263 09f8 C0F20003 		movt	r3, #:upper16:I2C_Variable
 1264 09fc 4FF00002 		mov	r2, #0
 1265 0a00 1A60     		str	r2, [r3, #0]
 1266 0a02 0BE0     		b	.L55
 1267              	.L57:
 1268              		.loc 1 127 0 is_stmt 0 discriminator 4
 1269 0a04 40F20003 		movw	r3, #:lower16:I2C_Variable
 1270 0a08 C0F20003 		movt	r3, #:upper16:I2C_Variable
 1271 0a0c 1B68     		ldr	r3, [r3, #0]
 1272 0a0e 03F10102 		add	r2, r3, #1
 1273 0a12 40F20003 		movw	r3, #:lower16:I2C_Variable
 1274 0a16 C0F20003 		movt	r3, #:upper16:I2C_Variable
 1275 0a1a 1A60     		str	r2, [r3, #0]
 1276              	.L55:
 1277              		.loc 1 127 0 discriminator 1
 1278 0a1c 4FF4E043 		mov	r3, #28672
 1279 0a20 C4F20603 		movt	r3, 16390
 1280 0a24 DB78     		ldrb	r3, [r3, #3]
 1281 0a26 DBB2     		uxtb	r3, r3
 1282 0a28 03F00203 		and	r3, r3, #2
 1283 0a2c 002B     		cmp	r3, #0
 1284 0a2e 08D1     		bne	.L56
 1285              		.loc 1 127 0 discriminator 2
 1286 0a30 40F20003 		movw	r3, #:lower16:I2C_Variable
 1287 0a34 C0F20003 		movt	r3, #:upper16:I2C_Variable
 1288 0a38 1A68     		ldr	r2, [r3, #0]
 1289 0a3a 40F2CF73 		movw	r3, #1999
 1290 0a3e 9A42     		cmp	r2, r3
 1291 0a40 E0DD     		ble	.L57
 1292              	.L56:
 1293              		.loc 1 127 0 discriminator 3
 1294 0a42 4FF4E043 		mov	r3, #28672
 1295 0a46 C4F20603 		movt	r3, 16390
 1296 0a4a 4FF4E042 		mov	r2, #28672
 1297 0a4e C4F20602 		movt	r2, 16390
 1298 0a52 D278     		ldrb	r2, [r2, #3]
 1299 0a54 D2B2     		uxtb	r2, r2
 1300 0a56 42F00202 		orr	r2, r2, #2
 1301 0a5a D2B2     		uxtb	r2, r2
 1302 0a5c DA70     		strb	r2, [r3, #3]
 128:../Sources/processor_specific_functions/K40/i2c.c ****   i2c_RepeatedStart();
 1303              		.loc 1 128 0 is_stmt 1 discriminator 3
 1304 0a5e 4FF4E043 		mov	r3, #28672
 1305 0a62 C4F20603 		movt	r3, 16390
 1306 0a66 4FF4E042 		mov	r2, #28672
 1307 0a6a C4F20602 		movt	r2, 16390
 1308 0a6e 9278     		ldrb	r2, [r2, #2]
 1309 0a70 D2B2     		uxtb	r2, r2
 1310 0a72 42F00402 		orr	r2, r2, #4
 1311 0a76 D2B2     		uxtb	r2, r2
 1312 0a78 9A70     		strb	r2, [r3, #2]
 129:../Sources/processor_specific_functions/K40/i2c.c ****   i2c_write_byte((SlaveID << 1) | 0x01);
 1313              		.loc 1 129 0 discriminator 3
 1314 0a7a 4FF4E043 		mov	r3, #28672
 1315 0a7e C4F20603 		movt	r3, 16390
 1316 0a82 FA79     		ldrb	r2, [r7, #7]	@ zero_extendqisi2
 1317 0a84 4FEA4202 		lsl	r2, r2, #1
 1318 0a88 D2B2     		uxtb	r2, r2
 1319 0a8a 42F00102 		orr	r2, r2, #1
 1320 0a8e D2B2     		uxtb	r2, r2
 1321 0a90 D2B2     		uxtb	r2, r2
 1322 0a92 1A71     		strb	r2, [r3, #4]
 130:../Sources/processor_specific_functions/K40/i2c.c ****   i2c_Wait();
 1323              		.loc 1 130 0 discriminator 3
 1324 0a94 40F20003 		movw	r3, #:lower16:I2C_Variable
 1325 0a98 C0F20003 		movt	r3, #:upper16:I2C_Variable
 1326 0a9c 4FF00002 		mov	r2, #0
 1327 0aa0 1A60     		str	r2, [r3, #0]
 1328 0aa2 0BE0     		b	.L58
 1329              	.L60:
 1330              		.loc 1 130 0 is_stmt 0 discriminator 4
 1331 0aa4 40F20003 		movw	r3, #:lower16:I2C_Variable
 1332 0aa8 C0F20003 		movt	r3, #:upper16:I2C_Variable
 1333 0aac 1B68     		ldr	r3, [r3, #0]
 1334 0aae 03F10102 		add	r2, r3, #1
 1335 0ab2 40F20003 		movw	r3, #:lower16:I2C_Variable
 1336 0ab6 C0F20003 		movt	r3, #:upper16:I2C_Variable
 1337 0aba 1A60     		str	r2, [r3, #0]
 1338              	.L58:
 1339              		.loc 1 130 0 discriminator 1
 1340 0abc 4FF4E043 		mov	r3, #28672
 1341 0ac0 C4F20603 		movt	r3, 16390
 1342 0ac4 DB78     		ldrb	r3, [r3, #3]
 1343 0ac6 DBB2     		uxtb	r3, r3
 1344 0ac8 03F00203 		and	r3, r3, #2
 1345 0acc 002B     		cmp	r3, #0
 1346 0ace 08D1     		bne	.L59
 1347              		.loc 1 130 0 discriminator 2
 1348 0ad0 40F20003 		movw	r3, #:lower16:I2C_Variable
 1349 0ad4 C0F20003 		movt	r3, #:upper16:I2C_Variable
 1350 0ad8 1A68     		ldr	r2, [r3, #0]
 1351 0ada 40F2CF73 		movw	r3, #1999
 1352 0ade 9A42     		cmp	r2, r3
 1353 0ae0 E0DD     		ble	.L60
 1354              	.L59:
 1355              		.loc 1 130 0 discriminator 3
 1356 0ae2 4FF4E043 		mov	r3, #28672
 1357 0ae6 C4F20603 		movt	r3, 16390
 1358 0aea 4FF4E042 		mov	r2, #28672
 1359 0aee C4F20602 		movt	r2, 16390
 1360 0af2 D278     		ldrb	r2, [r2, #3]
 1361 0af4 D2B2     		uxtb	r2, r2
 1362 0af6 42F00202 		orr	r2, r2, #2
 1363 0afa D2B2     		uxtb	r2, r2
 1364 0afc DA70     		strb	r2, [r3, #3]
 131:../Sources/processor_specific_functions/K40/i2c.c ****   i2c_EnterRxMode();
 1365              		.loc 1 131 0 is_stmt 1 discriminator 3
 1366 0afe 4FF4E043 		mov	r3, #28672
 1367 0b02 C4F20603 		movt	r3, 16390
 1368 0b06 4FF4E042 		mov	r2, #28672
 1369 0b0a C4F20602 		movt	r2, 16390
 1370 0b0e 9278     		ldrb	r2, [r2, #2]
 1371 0b10 D2B2     		uxtb	r2, r2
 1372 0b12 22F01002 		bic	r2, r2, #16
 1373 0b16 D2B2     		uxtb	r2, r2
 1374 0b18 9A70     		strb	r2, [r3, #2]
 132:../Sources/processor_specific_functions/K40/i2c.c ****   i2c_EnableAck();
 1375              		.loc 1 132 0 discriminator 3
 1376 0b1a 4FF4E043 		mov	r3, #28672
 1377 0b1e C4F20603 		movt	r3, 16390
 1378 0b22 4FF4E042 		mov	r2, #28672
 1379 0b26 C4F20602 		movt	r2, 16390
 1380 0b2a 9278     		ldrb	r2, [r2, #2]
 1381 0b2c D2B2     		uxtb	r2, r2
 1382 0b2e 22F00802 		bic	r2, r2, #8
 1383 0b32 D2B2     		uxtb	r2, r2
 1384 0b34 9A70     		strb	r2, [r3, #2]
 133:../Sources/processor_specific_functions/K40/i2c.c ****   i = I2C1_D ; // Dummy read
 1385              		.loc 1 133 0 discriminator 3
 1386 0b36 4FF4E043 		mov	r3, #28672
 1387 0b3a C4F20603 		movt	r3, 16390
 1388 0b3e 1B79     		ldrb	r3, [r3, #4]
 1389 0b40 FB73     		strb	r3, [r7, #15]
 134:../Sources/processor_specific_functions/K40/i2c.c ****   i2c_Wait();
 1390              		.loc 1 134 0 discriminator 3
 1391 0b42 40F20003 		movw	r3, #:lower16:I2C_Variable
 1392 0b46 C0F20003 		movt	r3, #:upper16:I2C_Variable
 1393 0b4a 4FF00002 		mov	r2, #0
 1394 0b4e 1A60     		str	r2, [r3, #0]
 1395 0b50 0BE0     		b	.L61
 1396              	.L63:
 1397              		.loc 1 134 0 is_stmt 0 discriminator 4
 1398 0b52 40F20003 		movw	r3, #:lower16:I2C_Variable
 1399 0b56 C0F20003 		movt	r3, #:upper16:I2C_Variable
 1400 0b5a 1B68     		ldr	r3, [r3, #0]
 1401 0b5c 03F10102 		add	r2, r3, #1
 1402 0b60 40F20003 		movw	r3, #:lower16:I2C_Variable
 1403 0b64 C0F20003 		movt	r3, #:upper16:I2C_Variable
 1404 0b68 1A60     		str	r2, [r3, #0]
 1405              	.L61:
 1406              		.loc 1 134 0 discriminator 1
 1407 0b6a 4FF4E043 		mov	r3, #28672
 1408 0b6e C4F20603 		movt	r3, 16390
 1409 0b72 DB78     		ldrb	r3, [r3, #3]
 1410 0b74 DBB2     		uxtb	r3, r3
 1411 0b76 03F00203 		and	r3, r3, #2
 1412 0b7a 002B     		cmp	r3, #0
 1413 0b7c 08D1     		bne	.L62
 1414              		.loc 1 134 0 discriminator 2
 1415 0b7e 40F20003 		movw	r3, #:lower16:I2C_Variable
 1416 0b82 C0F20003 		movt	r3, #:upper16:I2C_Variable
 1417 0b86 1A68     		ldr	r2, [r3, #0]
 1418 0b88 40F2CF73 		movw	r3, #1999
 1419 0b8c 9A42     		cmp	r2, r3
 1420 0b8e E0DD     		ble	.L63
 1421              	.L62:
 1422              		.loc 1 134 0 discriminator 3
 1423 0b90 4FF4E043 		mov	r3, #28672
 1424 0b94 C4F20603 		movt	r3, 16390
 1425 0b98 4FF4E042 		mov	r2, #28672
 1426 0b9c C4F20602 		movt	r2, 16390
 1427 0ba0 D278     		ldrb	r2, [r2, #3]
 1428 0ba2 D2B2     		uxtb	r2, r2
 1429 0ba4 42F00202 		orr	r2, r2, #2
 1430 0ba8 D2B2     		uxtb	r2, r2
 1431 0baa DA70     		strb	r2, [r3, #3]
 135:../Sources/processor_specific_functions/K40/i2c.c ****   
 136:../Sources/processor_specific_functions/K40/i2c.c ****   DMA_starttransfer(DMA_BASE_PTR,0, 14);
 1432              		.loc 1 136 0 is_stmt 1 discriminator 3
 1433 0bac 4FF40040 		mov	r0, #32768
 1434 0bb0 C4F20000 		movt	r0, 16384
 1435 0bb4 4FF00001 		mov	r1, #0
 1436 0bb8 4FF00E02 		mov	r2, #14
 1437 0bbc FFF7FEFF 		bl	DMA_starttransfer
 137:../Sources/processor_specific_functions/K40/i2c.c **** /*
 138:../Sources/processor_specific_functions/K40/i2c.c ****   i2c_DisableAck(); // Desabilita ACK por ser o penultimo byte a ler
 139:../Sources/processor_specific_functions/K40/i2c.c ****   *r = I2C1_D; // Le penultimo byte
 140:../Sources/processor_specific_functions/K40/i2c.c ****   r++;
 141:../Sources/processor_specific_functions/K40/i2c.c ****   i2c_Wait();
 142:../Sources/processor_specific_functions/K40/i2c.c ****   i2c_Stop(); // Envia STOP por ser o ultimo byte
 143:../Sources/processor_specific_functions/K40/i2c.c ****   *r = I2C1_D; // Le ultimo byte
 144:../Sources/processor_specific_functions/K40/i2c.c ****   Pause();*/
 145:../Sources/processor_specific_functions/K40/i2c.c **** }
 1438              		.loc 1 145 0 discriminator 3
 1439 0bc0 07F11007 		add	r7, r7, #16
 1440 0bc4 BD46     		mov	sp, r7
 1441 0bc6 80BD     		pop	{r7, pc}
 1442              		.cfi_endproc
 1443              	.LFE6:
 1445              		.align	2
 1446              		.global	I2C_search
 1447              		.thumb
 1448              		.thumb_func
 1450              	I2C_search:
 1451              	.LFB7:
 146:../Sources/processor_specific_functions/K40/i2c.c **** 
 147:../Sources/processor_specific_functions/K40/i2c.c **** void I2C_search()
 148:../Sources/processor_specific_functions/K40/i2c.c **** {
 1452              		.loc 1 148 0
 1453              		.cfi_startproc
 1454              		@ args = 0, pretend = 0, frame = 8
 1455              		@ frame_needed = 1, uses_anonymous_args = 0
 1456              		@ link register save eliminated.
 1457 0bc8 80B4     		push	{r7}
 1458              	.LCFI20:
 1459              		.cfi_def_cfa_offset 4
 1460              		.cfi_offset 7, -4
 1461 0bca 83B0     		sub	sp, sp, #12
 1462              	.LCFI21:
 1463              		.cfi_def_cfa_offset 16
 1464 0bcc 00AF     		add	r7, sp, #0
 1465              	.LCFI22:
 1466              		.cfi_def_cfa_register 7
 149:../Sources/processor_specific_functions/K40/i2c.c **** 	char address=2;
 1467              		.loc 1 149 0
 1468 0bce 4FF00203 		mov	r3, #2
 1469 0bd2 FB71     		strb	r3, [r7, #7]
 150:../Sources/processor_specific_functions/K40/i2c.c **** 	char numb=0;
 1470              		.loc 1 150 0
 1471 0bd4 4FF00003 		mov	r3, #0
 1472 0bd8 BB71     		strb	r3, [r7, #6]
 151:../Sources/processor_specific_functions/K40/i2c.c **** 	char result=0;
 1473              		.loc 1 151 0
 1474 0bda 4FF00003 		mov	r3, #0
 1475 0bde 7B71     		strb	r3, [r7, #5]
 1476 0be0 00E0     		b	.L67
 1477              	.L68:
 152:../Sources/processor_specific_functions/K40/i2c.c **** 	while(1)
 153:../Sources/processor_specific_functions/K40/i2c.c **** 	{
 154:../Sources/processor_specific_functions/K40/i2c.c **** 		//LDByteReadI2C(address,0x75,&result,1); 2015.11
 155:../Sources/processor_specific_functions/K40/i2c.c **** 		if(result==1)
 156:../Sources/processor_specific_functions/K40/i2c.c **** 		{
 157:../Sources/processor_specific_functions/K40/i2c.c **** 			result=0;				//ide kell rakni breakpointot, es ha megall az addressban levo valtozo az I2C eszko
 158:../Sources/processor_specific_functions/K40/i2c.c **** 			numb++;
 159:../Sources/processor_specific_functions/K40/i2c.c **** 		}
 160:../Sources/processor_specific_functions/K40/i2c.c **** 		address++;
 161:../Sources/processor_specific_functions/K40/i2c.c **** 		if(address==255) address=0;
 162:../Sources/processor_specific_functions/K40/i2c.c **** 	}
 1478              		.loc 1 162 0
 1479 0be2 00BF     		nop
 1480              	.L67:
 155:../Sources/processor_specific_functions/K40/i2c.c **** 		if(result==1)
 1481              		.loc 1 155 0
 1482 0be4 7B79     		ldrb	r3, [r7, #5]	@ zero_extendqisi2
 1483 0be6 012B     		cmp	r3, #1
 1484 0be8 06D1     		bne	.L65
 157:../Sources/processor_specific_functions/K40/i2c.c **** 			result=0;				//ide kell rakni breakpointot, es ha megall az addressban levo valtozo az I2C eszko
 1485              		.loc 1 157 0
 1486 0bea 4FF00003 		mov	r3, #0
 1487 0bee 7B71     		strb	r3, [r7, #5]
 158:../Sources/processor_specific_functions/K40/i2c.c **** 			numb++;
 1488              		.loc 1 158 0
 1489 0bf0 BB79     		ldrb	r3, [r7, #6]
 1490 0bf2 03F10103 		add	r3, r3, #1
 1491 0bf6 BB71     		strb	r3, [r7, #6]
 1492              	.L65:
 160:../Sources/processor_specific_functions/K40/i2c.c **** 		address++;
 1493              		.loc 1 160 0
 1494 0bf8 FB79     		ldrb	r3, [r7, #7]
 1495 0bfa 03F10103 		add	r3, r3, #1
 1496 0bfe FB71     		strb	r3, [r7, #7]
 161:../Sources/processor_specific_functions/K40/i2c.c **** 		if(address==255) address=0;
 1497              		.loc 1 161 0
 1498 0c00 FB79     		ldrb	r3, [r7, #7]	@ zero_extendqisi2
 1499 0c02 FF2B     		cmp	r3, #255
 1500 0c04 EDD1     		bne	.L68
 161:../Sources/processor_specific_functions/K40/i2c.c **** 		if(address==255) address=0;
 1501              		.loc 1 161 0 is_stmt 0 discriminator 1
 1502 0c06 4FF00003 		mov	r3, #0
 1503 0c0a FB71     		strb	r3, [r7, #7]
 1504              		.loc 1 162 0 is_stmt 1 discriminator 1
 1505 0c0c E9E7     		b	.L68
 1506              		.cfi_endproc
 1507              	.LFE7:
 1509              	.Letext0:
 1510              		.file 2 "c:\\freescale\\cw mcu v10.6\\cross_tools\\arm-none-eabi-gcc-4_7_3\\bin\\../lib/gcc/arm-no
 1511              		.file 3 "E:/saj\341t/quadcopter/quadcopter v2.0/Project_Headers/processor_specific_functions\\K40\
 1512              		.file 4 "E:/saj\341t/quadcopter/quadcopter v2.0/Sources/ff10b/src/integer.h"
 1513              		.file 5 "E:/saj\341t/quadcopter/quadcopter v2.0/Sources/ff10b/src/ff.h"
 1514              		.file 6 "E:/saj\341t/quadcopter/quadcopter v2.0/Project_Headers/processor_specific_functions/K40/d
 1515              		.file 7 "E:/saj\341t/quadcopter/quadcopter v2.0/Project_Headers/interrupts.h"
 1516              		.file 8 "E:/saj\341t/quadcopter/quadcopter v2.0/Project_Headers/SDcard.h"
 1517              		.file 9 "E:/saj\341t/quadcopter/quadcopter v2.0/Project_Headers/MPU6050.h"
 1518              		.file 10 "E:/saj\341t/quadcopter/quadcopter v2.0/Project_Headers/BMP180.h"