   1              		.syntax unified
   2              		.cpu cortex-m4
   3              		.fpu softvfp
   4              		.eabi_attribute 20, 1
   5              		.eabi_attribute 21, 1
   6              		.eabi_attribute 23, 3
   7              		.eabi_attribute 24, 1
   8              		.eabi_attribute 25, 1
   9              		.eabi_attribute 26, 1
  10              		.eabi_attribute 30, 6
  11              		.eabi_attribute 34, 1
  12              		.eabi_attribute 18, 4
  13              		.thumb
  14              		.file	"PWM.c"
  15              		.text
  16              	.Ltext0:
  17              		.cfi_sections	.debug_frame
  18              		.comm	I2C_Variable,4,4
  19              		.comm	uart_data,1,1
  20              		.comm	adc_data,60,4
  21              		.comm	Kp,4,4
  22              		.comm	Kd,4,4
  23              		.comm	Ki,4,4
  24              		.comm	zKp,4,4
  25              		.comm	zKd,4,4
  26              		.comm	basepower,4,4
  27              		.comm	setpoint_x,4,4
  28              		.comm	setpoint_y,4,4
  29              		.comm	setpoint_z,4,4
  30              		.comm	setpoint_alt,4,4
  31              		.comm	batt1_vol,4,4
  32              		.comm	batt2_vol,4,4
  33              		.comm	batt3_vol,4,4
  34              		.comm	BATT_VOLT,4,4
  35              		.comm	FatFs,560,4
  36              		.comm	fil,548,4
  37              		.comm	GYRO_XOUT_OFFSET,2,2
  38              		.comm	GYRO_YOUT_OFFSET,2,2
  39              		.comm	GYRO_ZOUT_OFFSET,2,2
  40              		.comm	ACCEL_XOUT_OFFSET,2,2
  41              		.comm	ACCEL_YOUT_OFFSET,2,2
  42              		.comm	ACCEL_ZOUT_OFFSET,2,2
  43              		.comm	GYRO_XANGLE,4,4
  44              		.comm	GYRO_YANGLE,4,4
  45              		.comm	GYRO_ZANGLE,4,4
  46              		.comm	GYRO_XOUT,2,2
  47              		.comm	GYRO_YOUT,2,2
  48              		.comm	GYRO_ZOUT,2,2
  49              		.comm	ACCEL_XOUT,2,2
  50              		.comm	ACCEL_YOUT,2,2
  51              		.comm	ACCEL_ZOUT,2,2
  52              		.comm	ACCEL_Gx,4,4
  53              		.comm	ACCEL_Gy,4,4
  54              		.comm	ACCEL_Gz,4,4
  55              		.comm	ACCEL,8,8
  56              		.comm	GYRO_XRATE,4,4
  57              		.comm	GYRO_YRATE,4,4
  58              		.comm	GYRO_ZRATE,4,4
  59              		.comm	ACCEL_XANGLE,4,4
  60              		.comm	ACCEL_YANGLE,4,4
  61              		.comm	gyro_xsensitivity,4,4
  62              		.comm	gyro_ysensitivity,4,4
  63              		.comm	gyro_zsensitivity,4,4
  64              		.comm	a,4,4
  65              		.comm	dt,4,4
  66              		.comm	COMPLEMENTARY_XANGLE,4,4
  67              		.comm	COMPLEMENTARY_YANGLE,4,4
  68              		.comm	filter_xterm,12,4
  69              		.comm	filter_yterm,12,4
  70              		.comm	XANGLE_OFFSET,4,4
  71              		.comm	YANGLE_OFFSET,4,4
  72              		.comm	TEMP,4,4
  73              		.comm	timeConstant,4,4
  74              		.comm	MPU_6050_buffer,14,4
  75              		.comm	AC1,2,2
  76              		.comm	AC2,2,2
  77              		.comm	AC3,2,2
  78              		.comm	B1,2,2
  79              		.comm	B2,2,2
  80              		.comm	MB,2,2
  81              		.comm	MC,2,2
  82              		.comm	MD,2,2
  83              		.comm	AC4,2,2
  84              		.comm	AC5,2,2
  85              		.comm	AC6,2,2
  86              		.comm	T,4,4
  87              		.comm	absolute_altittude,4,4
  88              		.comm	start_altittude,4,4
  89              		.comm	relative_altittude,4,4
  90              		.comm	P,4,4
  91              		.align	2
  92              		.global	init_PWM
  93              		.thumb
  94              		.thumb_func
  96              	init_PWM:
  97              	.LFB0:
  98              		.file 1 "../Sources/processor_specific_functions/K40/PWM.c"
   1:../Sources/processor_specific_functions/K40/PWM.c **** /*
   2:../Sources/processor_specific_functions/K40/PWM.c ****  * PWM.c
   3:../Sources/processor_specific_functions/K40/PWM.c ****  *
   4:../Sources/processor_specific_functions/K40/PWM.c ****  *  Created on: Dec 19, 2014
   5:../Sources/processor_specific_functions/K40/PWM.c ****  *      Author: Norbi
   6:../Sources/processor_specific_functions/K40/PWM.c ****  */
   7:../Sources/processor_specific_functions/K40/PWM.c **** #include "init.h"
   8:../Sources/processor_specific_functions/K40/PWM.c **** 
   9:../Sources/processor_specific_functions/K40/PWM.c **** void init_PWM()
  10:../Sources/processor_specific_functions/K40/PWM.c **** {
  99              		.loc 1 10 0
 100              		.cfi_startproc
 101              		@ args = 0, pretend = 0, frame = 0
 102              		@ frame_needed = 1, uses_anonymous_args = 0
 103              		@ link register save eliminated.
 104 0000 80B4     		push	{r7}
 105              	.LCFI0:
 106              		.cfi_def_cfa_offset 4
 107              		.cfi_offset 7, -4
 108 0002 00AF     		add	r7, sp, #0
 109              	.LCFI1:
 110              		.cfi_def_cfa_register 7
  11:../Sources/processor_specific_functions/K40/PWM.c **** 	SIM_SCGC6 |= SIM_SCGC6_FTM0_MASK;	//Enable the Clock to the FTM0 Module
 111              		.loc 1 11 0
 112 0004 4FF4E043 		mov	r3, #28672
 113 0008 C4F20403 		movt	r3, 16388
 114 000c 4FF4E042 		mov	r2, #28672
 115 0010 C4F20402 		movt	r2, 16388
 116 0014 02F58152 		add	r2, r2, #4128
 117 0018 02F11C02 		add	r2, r2, #28
 118 001c 1268     		ldr	r2, [r2, #0]
 119 001e 42F08072 		orr	r2, r2, #16777216
 120 0022 03F58153 		add	r3, r3, #4128
 121 0026 03F11C03 		add	r3, r3, #28
 122 002a 1A60     		str	r2, [r3, #0]
  12:../Sources/processor_specific_functions/K40/PWM.c **** 	FTM0_MODE |= FTM_MODE_WPDIS_MASK;
 123              		.loc 1 12 0
 124 002c 4FF40043 		mov	r3, #32768
 125 0030 C4F20303 		movt	r3, 16387
 126 0034 4FF40042 		mov	r2, #32768
 127 0038 C4F20302 		movt	r2, 16387
 128 003c 526D     		ldr	r2, [r2, #84]
 129 003e 42F00402 		orr	r2, r2, #4
 130 0042 5A65     		str	r2, [r3, #84]
  13:../Sources/processor_specific_functions/K40/PWM.c **** 	// FTMEN is bit 0, need to set to zero so DECAPEN can be set to 0
  14:../Sources/processor_specific_functions/K40/PWM.c **** 	FTM0_MODE &= ~FTM_MODE_FTMEN_MASK; 
 131              		.loc 1 14 0
 132 0044 4FF40043 		mov	r3, #32768
 133 0048 C4F20303 		movt	r3, 16387
 134 004c 4FF40042 		mov	r2, #32768
 135 0050 C4F20302 		movt	r2, 16387
 136 0054 526D     		ldr	r2, [r2, #84]
 137 0056 22F00102 		bic	r2, r2, #1
 138 005a 5A65     		str	r2, [r3, #84]
  15:../Sources/processor_specific_functions/K40/PWM.c **** 	// Set Edge Aligned PWM
  16:../Sources/processor_specific_functions/K40/PWM.c **** 	FTM0_QDCTRL &= ~FTM_QDCTRL_QUADEN_MASK;  
 139              		.loc 1 16 0
 140 005c 4FF40043 		mov	r3, #32768
 141 0060 C4F20303 		movt	r3, 16387
 142 0064 4FF40042 		mov	r2, #32768
 143 0068 C4F20302 		movt	r2, 16387
 144 006c D2F88020 		ldr	r2, [r2, #128]
 145 0070 22F00102 		bic	r2, r2, #1
 146 0074 C3F88020 		str	r2, [r3, #128]
  17:../Sources/processor_specific_functions/K40/PWM.c **** 	// QUADEN is Bit 1, Set Quadrature Decoder Mode (QUADEN) Enable to 0,   (disabled)
  18:../Sources/processor_specific_functions/K40/PWM.c **** 	// Also need to setup the FTM0C1SC channel control register 
  19:../Sources/processor_specific_functions/K40/PWM.c **** 	FTM0_CNT = 0;	// FTM Counter Value - reset counter to zero
 147              		.loc 1 19 0
 148 0078 4FF40043 		mov	r3, #32768
 149 007c C4F20303 		movt	r3, 16387
 150 0080 4FF00002 		mov	r2, #0
 151 0084 5A60     		str	r2, [r3, #4]
  20:../Sources/processor_specific_functions/K40/PWM.c ****     FTM0_MOD = FTM0_CLOCK/(1<<FTM0_CLK_PRESCALE)/PWM_FREQUNECY;  // Count value of full duty cycle
 152              		.loc 1 20 0
 153 0086 4FF40043 		mov	r3, #32768
 154 008a C4F20303 		movt	r3, 16387
 155 008e 41F64C52 		movw	r2, #7500
 156 0092 9A60     		str	r2, [r3, #8]
  21:../Sources/processor_specific_functions/K40/PWM.c ****     //TMPM0_MOD erteket ha eleri a szamlalo(TPM0_CNT) akkor tortenik a megszakitas(PWM egy periodus
  22:../Sources/processor_specific_functions/K40/PWM.c **** 	FTM0_CNTIN = 0;// Set the Counter Initial Value to 0 
 157              		.loc 1 22 0
 158 0094 4FF40043 		mov	r3, #32768
 159 0098 C4F20303 		movt	r3, 16387
 160 009c 4FF00002 		mov	r2, #0
 161 00a0 DA64     		str	r2, [r3, #76]
  23:../Sources/processor_specific_functions/K40/PWM.c **** }
 162              		.loc 1 23 0
 163 00a2 BD46     		mov	sp, r7
 164 00a4 80BC     		pop	{r7}
 165 00a6 7047     		bx	lr
 166              		.cfi_endproc
 167              	.LFE0:
 169              		.align	2
 170              		.global	init_Motor_PWM
 171              		.thumb
 172              		.thumb_func
 174              	init_Motor_PWM:
 175              	.LFB1:
  24:../Sources/processor_specific_functions/K40/PWM.c **** void init_Motor_PWM()
  25:../Sources/processor_specific_functions/K40/PWM.c **** {
 176              		.loc 1 25 0
 177              		.cfi_startproc
 178              		@ args = 0, pretend = 0, frame = 0
 179              		@ frame_needed = 1, uses_anonymous_args = 0
 180 00a8 80B5     		push	{r7, lr}
 181              	.LCFI2:
 182              		.cfi_def_cfa_offset 8
 183              		.cfi_offset 7, -8
 184              		.cfi_offset 14, -4
 185 00aa 00AF     		add	r7, sp, #0
 186              	.LCFI3:
 187              		.cfi_def_cfa_register 7
  26:../Sources/processor_specific_functions/K40/PWM.c **** 
  27:../Sources/processor_specific_functions/K40/PWM.c **** 	init_PWM();
 188              		.loc 1 27 0
 189 00ac FFF7FEFF 		bl	init_PWM
  28:../Sources/processor_specific_functions/K40/PWM.c **** 	//Setup Channels
  29:../Sources/processor_specific_functions/K40/PWM.c **** 	FTM0_C1SC |= FTM_CnSC_ELSB_MASK | FTM_CnSC_MSB_MASK; //Edge or level select
 190              		.loc 1 29 0
 191 00b0 4FF40043 		mov	r3, #32768
 192 00b4 C4F20303 		movt	r3, 16387
 193 00b8 4FF40042 		mov	r2, #32768
 194 00bc C4F20302 		movt	r2, 16387
 195 00c0 5269     		ldr	r2, [r2, #20]
 196 00c2 42F02802 		orr	r2, r2, #40
 197 00c6 5A61     		str	r2, [r3, #20]
  30:../Sources/processor_specific_functions/K40/PWM.c **** 	FTM0_C1SC &= ~FTM_CnSC_ELSA_MASK; //Edge or level Select
 198              		.loc 1 30 0
 199 00c8 4FF40043 		mov	r3, #32768
 200 00cc C4F20303 		movt	r3, 16387
 201 00d0 4FF40042 		mov	r2, #32768
 202 00d4 C4F20302 		movt	r2, 16387
 203 00d8 5269     		ldr	r2, [r2, #20]
 204 00da 22F00402 		bic	r2, r2, #4
 205 00de 5A61     		str	r2, [r3, #20]
  31:../Sources/processor_specific_functions/K40/PWM.c **** 	
  32:../Sources/processor_specific_functions/K40/PWM.c **** 	FTM0_C6SC |= FTM_CnSC_ELSB_MASK | FTM_CnSC_MSB_MASK; //Edge or level select
 206              		.loc 1 32 0
 207 00e0 4FF40043 		mov	r3, #32768
 208 00e4 C4F20303 		movt	r3, 16387
 209 00e8 4FF40042 		mov	r2, #32768
 210 00ec C4F20302 		movt	r2, 16387
 211 00f0 D26B     		ldr	r2, [r2, #60]
 212 00f2 42F02802 		orr	r2, r2, #40
 213 00f6 DA63     		str	r2, [r3, #60]
  33:../Sources/processor_specific_functions/K40/PWM.c **** 	FTM0_C6SC &= ~FTM_CnSC_ELSA_MASK; //Edge or level Select
 214              		.loc 1 33 0
 215 00f8 4FF40043 		mov	r3, #32768
 216 00fc C4F20303 		movt	r3, 16387
 217 0100 4FF40042 		mov	r2, #32768
 218 0104 C4F20302 		movt	r2, 16387
 219 0108 D26B     		ldr	r2, [r2, #60]
 220 010a 22F00402 		bic	r2, r2, #4
 221 010e DA63     		str	r2, [r3, #60]
  34:../Sources/processor_specific_functions/K40/PWM.c **** 	
  35:../Sources/processor_specific_functions/K40/PWM.c **** 	FTM0_C3SC |= FTM_CnSC_ELSB_MASK | FTM_CnSC_MSB_MASK; //Edge or level select
 222              		.loc 1 35 0
 223 0110 4FF40043 		mov	r3, #32768
 224 0114 C4F20303 		movt	r3, 16387
 225 0118 4FF40042 		mov	r2, #32768
 226 011c C4F20302 		movt	r2, 16387
 227 0120 526A     		ldr	r2, [r2, #36]
 228 0122 42F02802 		orr	r2, r2, #40
 229 0126 5A62     		str	r2, [r3, #36]
  36:../Sources/processor_specific_functions/K40/PWM.c **** 	FTM0_C3SC &= ~FTM_CnSC_ELSA_MASK; //Edge or level Select
 230              		.loc 1 36 0
 231 0128 4FF40043 		mov	r3, #32768
 232 012c C4F20303 		movt	r3, 16387
 233 0130 4FF40042 		mov	r2, #32768
 234 0134 C4F20302 		movt	r2, 16387
 235 0138 526A     		ldr	r2, [r2, #36]
 236 013a 22F00402 		bic	r2, r2, #4
 237 013e 5A62     		str	r2, [r3, #36]
  37:../Sources/processor_specific_functions/K40/PWM.c **** 	
  38:../Sources/processor_specific_functions/K40/PWM.c **** 	FTM0_C7SC |= FTM_CnSC_ELSB_MASK | FTM_CnSC_MSB_MASK; //Edge or level select
 238              		.loc 1 38 0
 239 0140 4FF40043 		mov	r3, #32768
 240 0144 C4F20303 		movt	r3, 16387
 241 0148 4FF40042 		mov	r2, #32768
 242 014c C4F20302 		movt	r2, 16387
 243 0150 526C     		ldr	r2, [r2, #68]
 244 0152 42F02802 		orr	r2, r2, #40
 245 0156 5A64     		str	r2, [r3, #68]
  39:../Sources/processor_specific_functions/K40/PWM.c **** 	FTM0_C7SC &= ~FTM_CnSC_ELSA_MASK; //Edge or level Select
 246              		.loc 1 39 0
 247 0158 4FF40043 		mov	r3, #32768
 248 015c C4F20303 		movt	r3, 16387
 249 0160 4FF40042 		mov	r2, #32768
 250 0164 C4F20302 		movt	r2, 16387
 251 0168 526C     		ldr	r2, [r2, #68]
 252 016a 22F00402 		bic	r2, r2, #4
 253 016e 5A64     		str	r2, [r3, #68]
  40:../Sources/processor_specific_functions/K40/PWM.c **** 
  41:../Sources/processor_specific_functions/K40/PWM.c **** 	// Edit registers when no clock is fed to timer so the MOD value, gets pushed in immediately
  42:../Sources/processor_specific_functions/K40/PWM.c **** 	FTM0_SC = 0; // Make sure its Off!
 254              		.loc 1 42 0
 255 0170 4FF40043 		mov	r3, #32768
 256 0174 C4F20303 		movt	r3, 16387
 257 0178 4FF00002 		mov	r2, #0
 258 017c 1A60     		str	r2, [r3, #0]
  43:../Sources/processor_specific_functions/K40/PWM.c **** 
  44:../Sources/processor_specific_functions/K40/PWM.c **** 	// FTMx_CnV contains the captured FTM counter value, this value determines the pulse width
  45:../Sources/processor_specific_functions/K40/PWM.c **** 	FTM0_C1V = 0;
 259              		.loc 1 45 0
 260 017e 4FF40043 		mov	r3, #32768
 261 0182 C4F20303 		movt	r3, 16387
 262 0186 4FF00002 		mov	r2, #0
 263 018a 9A61     		str	r2, [r3, #24]
  46:../Sources/processor_specific_functions/K40/PWM.c **** 	FTM0_C3V = 0;
 264              		.loc 1 46 0
 265 018c 4FF40043 		mov	r3, #32768
 266 0190 C4F20303 		movt	r3, 16387
 267 0194 4FF00002 		mov	r2, #0
 268 0198 9A62     		str	r2, [r3, #40]
  47:../Sources/processor_specific_functions/K40/PWM.c **** 	FTM0_C6V = 0;
 269              		.loc 1 47 0
 270 019a 4FF40043 		mov	r3, #32768
 271 019e C4F20303 		movt	r3, 16387
 272 01a2 4FF00002 		mov	r2, #0
 273 01a6 1A64     		str	r2, [r3, #64]
  48:../Sources/processor_specific_functions/K40/PWM.c **** 	FTM0_C7V = 0;
 274              		.loc 1 48 0
 275 01a8 4FF40043 		mov	r3, #32768
 276 01ac C4F20303 		movt	r3, 16387
 277 01b0 4FF00002 		mov	r2, #0
 278 01b4 9A64     		str	r2, [r3, #72]
  49:../Sources/processor_specific_functions/K40/PWM.c **** 
  50:../Sources/processor_specific_functions/K40/PWM.c **** 	//Status and Control bits 
  51:../Sources/processor_specific_functions/K40/PWM.c **** 	FTM0_SC =  FTM_SC_PS(4) | FTM_SC_CLKS(1); // Selects Clock source to be "system clock" or (01)
 279              		.loc 1 51 0
 280 01b6 4FF40043 		mov	r3, #32768
 281 01ba C4F20303 		movt	r3, 16387
 282 01be 4FF00C02 		mov	r2, #12
 283 01c2 1A60     		str	r2, [r3, #0]
  52:../Sources/processor_specific_functions/K40/PWM.c **** 	
  53:../Sources/processor_specific_functions/K40/PWM.c **** 	SIM_SCGC5 |= SIM_SCGC5_PORTA_MASK;
 284              		.loc 1 53 0
 285 01c4 4FF4E043 		mov	r3, #28672
 286 01c8 C4F20403 		movt	r3, 16388
 287 01cc 4FF4E042 		mov	r2, #28672
 288 01d0 C4F20402 		movt	r2, 16388
 289 01d4 02F58152 		add	r2, r2, #4128
 290 01d8 02F11802 		add	r2, r2, #24
 291 01dc 1268     		ldr	r2, [r2, #0]
 292 01de 42F40072 		orr	r2, r2, #512
 293 01e2 03F58153 		add	r3, r3, #4128
 294 01e6 03F11803 		add	r3, r3, #24
 295 01ea 1A60     		str	r2, [r3, #0]
  54:../Sources/processor_specific_functions/K40/PWM.c **** 	
  55:../Sources/processor_specific_functions/K40/PWM.c ****     PORTA_PCR8	= PORT_PCR_MUX(3);		//M1 - A	FTM1_CH0
 296              		.loc 1 55 0
 297 01ec 4FF41043 		mov	r3, #36864
 298 01f0 C4F20403 		movt	r3, 16388
 299 01f4 4FF44072 		mov	r2, #768
 300 01f8 1A62     		str	r2, [r3, #32]
  56:../Sources/processor_specific_functions/K40/PWM.c ****     PORTA_PCR9  = PORT_PCR_MUX(3);     	//M2 - B	FTM1_CH1	
 301              		.loc 1 56 0
 302 01fa 4FF41043 		mov	r3, #36864
 303 01fe C4F20403 		movt	r3, 16388
 304 0202 4FF44072 		mov	r2, #768
 305 0206 5A62     		str	r2, [r3, #36]
  57:../Sources/processor_specific_functions/K40/PWM.c ****     PORTA_PCR10 = PORT_PCR_MUX(3);		//M3 - C	FTM2_CH0
 306              		.loc 1 57 0
 307 0208 4FF41043 		mov	r3, #36864
 308 020c C4F20403 		movt	r3, 16388
 309 0210 4FF44072 		mov	r2, #768
 310 0214 9A62     		str	r2, [r3, #40]
  58:../Sources/processor_specific_functions/K40/PWM.c ****     PORTA_PCR11 = PORT_PCR_MUX(3);		//M4 - D	FTM2_CH1*/
 311              		.loc 1 58 0
 312 0216 4FF41043 		mov	r3, #36864
 313 021a C4F20403 		movt	r3, 16388
 314 021e 4FF44072 		mov	r2, #768
 315 0222 DA62     		str	r2, [r3, #44]
  59:../Sources/processor_specific_functions/K40/PWM.c ****         
  60:../Sources/processor_specific_functions/K40/PWM.c **** }
 316              		.loc 1 60 0
 317 0224 80BD     		pop	{r7, pc}
 318              		.cfi_endproc
 319              	.LFE1:
 321              	.Letext0:
 322              		.file 2 "c:\\freescale\\cw mcu v10.6\\cross_tools\\arm-none-eabi-gcc-4_7_3\\bin\\../lib/gcc/arm-no
 323              		.file 3 "E:/saj\341t/quadcopter/quadcopter v2.0/Project_Headers/processor_specific_functions\\K40\
 324              		.file 4 "E:/saj\341t/quadcopter/quadcopter v2.0/Sources/ff10b/src/integer.h"
 325              		.file 5 "E:/saj\341t/quadcopter/quadcopter v2.0/Sources/ff10b/src/ff.h"
 326              		.file 6 "E:/saj\341t/quadcopter/quadcopter v2.0/Project_Headers/processor_specific_functions/K40/i
 327              		.file 7 "E:/saj\341t/quadcopter/quadcopter v2.0/Project_Headers/processor_specific_functions/K40/d
 328              		.file 8 "E:/saj\341t/quadcopter/quadcopter v2.0/Project_Headers/interrupts.h"
 329              		.file 9 "E:/saj\341t/quadcopter/quadcopter v2.0/Project_Headers/SDcard.h"
 330              		.file 10 "E:/saj\341t/quadcopter/quadcopter v2.0/Project_Headers/MPU6050.h"
 331              		.file 11 "E:/saj\341t/quadcopter/quadcopter v2.0/Project_Headers/BMP180.h"